(dp0
(VAT
p1
VNNS$-TL
p2
tp3
I11
s(VPPO
p4
V``
p5
tp6
I1
s(V,
p7
VDOD
p8
tp9
I1
s(VRBR
p10
VBEDZ
p11
tp12
I1
s(VNPS
p13
VVB
p14
tp15
I2
s(VNN$-TL
p16
VJJ
p17
tp18
I4
s(VBEZ
p19
VRB
p20
tp21
I28
s(VNP$
p22
VOD
p23
tp24
I6
s(VWDT
p25
VNN
p26
tp27
I8
s(VRBR
p28
VCC
p29
tp30
I4
s(VIN
p31
VNN
p32
tp33
I735
s(VIN
p34
VJJR
p35
tp36
I13
s(VNPS
p37
VBE
p38
tp39
I1
s(VVBG
p40
VNNS
p41
tp42
I98
s(VIN
p43
VOD-TL
p44
tp45
I2
s(VVBN
p46
VEX
p47
tp48
I1
s(VNP
p49
VCS
p50
tp51
I37
s(VCD
p52
VNP$
p53
tp54
I1
s(VNP
p55
VOD-TL
p56
tp57
I1
s(VNNS-HL
p58
VVB-HL
p59
tp60
I2
s(VNP$-TL
p61
VNN-TL
p62
tp63
I4
s(VBER*
p64
VQL
p65
tp66
I1
s(VAP
p67
V'
p68
tp69
I1
s(VDOD
p70
VAT
p71
tp72
I4
s(VAP
p73
VNNS
p74
tp75
I126
s(VNP
p76
VJJ-TL
p77
tp78
I9
s(g68
VNNS
p79
tp80
I2
s(V``
p81
VJJT
p82
tp83
I2
s(VCS
p84
VDT
p85
tp86
I8
s(VVBN-TL
p87
VNNS
p88
tp89
I1
s(VVBN-HL
p90
VCD-HL
p91
tp92
I1
s(VWRB
p93
VBEZ
p94
tp95
I1
s(VCD
p96
VWPS
p97
tp98
I7
s(V--
p99
VVB
p100
tp101
I1
s(VCS
p102
VDOD
p103
tp104
I1
s(V''
p105
VBEDZ*
p106
tp107
I1
s(VABN
p108
V.
p109
tp110
I2
s(VCD
p111
VVBG
p112
tp113
I9
s(VRB
p114
VPP$
p115
tp116
I5
s(VNR
p117
VFW-IN
p118
tp119
I1
s(VRB
p120
VVBZ
p121
tp122
I17
s(VPP$
p123
VAT
p124
tp125
I1
s(VPPL
p126
VIN
p127
tp128
I4
s(VOD
p129
VCC
p130
tp131
I11
s(VPPSS+MD
p132
VBE
p133
tp134
I2
s(VHVD
p135
V''
p136
tp137
I1
s(VCC
p138
VHVD
p139
tp140
I4
s(VNP
p141
V)
p142
tp143
I27
s(VRB
p144
VQL
p145
tp146
I5
s(VCD
p147
V(
p148
tp149
I3
s(VNN-HL
p150
V''
p151
tp152
I2
s(VCD-TL
p153
g7
tp154
I11
s(VRB
p155
VCS
p156
tp157
I72
s(VBEZ
p158
VRP
p159
tp160
I4
s(VDO
p161
g7
tp162
I1
s(VJJ-TL
p163
VJJ-TL
p164
tp165
I11
s(VNP
p166
VVBN
p167
tp168
I2
s(VRP-HL
p169
VNN-HL
p170
tp171
I1
s(VBE
p172
VNN
p173
tp174
I4
s(VAP$
p175
VNN
p176
tp177
I1
s(VCD
p178
VVBN
p179
tp180
I9
s(g121
VTO
p181
tp182
I26
s(VNN-TL
p183
g7
tp184
I185
s(VRBR
p185
VDT
p186
tp187
I2
s(VRB$
p188
VNN
p189
tp190
I1
s(g7
VNNS-TL
p191
tp192
I1
s(VAP
p193
VNP
p194
tp195
I19
s(VNN-HL
p196
VVBN-HL
p197
tp198
I23
s(VPN
p199
VVBN
p200
tp201
I1
s(V``
p202
VABX
p203
tp204
I1
s(VNN-TL-HL
p205
V(-HL
p206
tp207
I1
s(VVBG
p208
V''
p209
tp210
I2
s(VNNS
p211
VVBD
p212
tp213
I137
s(V''
p214
VPP$
p215
tp216
I1
s(VAT-HL
p217
VNP-HL
p218
tp219
I1
s(VVB
p220
VNNS-TL
p221
tp222
I1
s(VNPS
p223
VWPS
p224
tp225
I1
s(VWDT
p226
VRB
p227
tp228
I8
s(V``
p229
VNP$
p230
tp231
I1
s(VWDT
p232
VAT
p233
tp234
I20
s(VJJ
p235
VNN-TL
p236
tp237
I13
s(VIN
p238
VRB
p239
tp240
I42
s(VPPS+BEZ
p241
VCD
p242
tp243
I2
s(VRP
p244
VVBZ
p245
tp246
I1
s(VVBZ
p247
VPPO
p248
tp249
I5
s(VCS
p250
VJJR
p251
tp252
I2
s(VNNS-TL
p253
VHV
p254
tp255
I2
s(VNN
p256
VDT
p257
tp258
I23
s(VVBD-HL
p259
VIN-HL
p260
tp261
I1
s(VVBN-TL
p262
VNN-TL
p263
tp264
I7
s(VRB
p265
VVB
p266
tp267
I58
s(V:
p268
VNN-TL
p269
tp270
I1
s(VNN
p271
VWDT
p272
tp273
I41
s(VCC
p274
VDT
p275
tp276
I8
s(g7
VMD
p277
tp278
I50
s(VPN
p279
VVBG
p280
tp281
I1
s(g7
VVB
p282
tp283
I16
s(VRP
p284
VNR
p285
tp286
I6
s(g7
VBEDZ
p287
tp288
I45
s(g148
VNNS
p289
tp290
I1
s(VIN
p291
VNP$
p292
tp293
I51
s(VNR
p294
V--
p295
tp296
I4
s(VBER
p297
VNP
p298
tp299
I9
s(VBEM
p300
VQL
p301
tp302
I1
s(VNN-TL
p303
g148
tp304
I2
s(V*
p305
VPP$
p306
tp307
I3
s(VVBG
p308
VNN
p309
tp310
I164
s(g7
VPPS+MD
p311
tp312
I2
s(VVBZ
p313
VPPSS
p314
tp315
I1
s(VPPS
p316
VHVZ
p317
tp318
I20
s(g142
VBEZ
p319
tp320
I1
s(VIN
p321
VCS
p322
tp323
I7
s(VWPS
p324
VNR
p325
tp326
I1
s(VDOD
p327
V''
p328
tp329
I1
s(VVB
p330
VPP$
p331
tp332
I67
s(V``
p333
VQL
p334
tp335
I8
s(VRBR
p336
VIN
p337
tp338
I11
s(VVBN-TL
p339
VNP-TL
p340
tp341
I1
s(VIN
p342
VPPL
p343
tp344
I2
s(VVBG
p345
VPPO
p346
tp347
I24
s(VQL
p348
V``
p349
tp350
I1
s(V''
p351
VHVZ
p352
tp353
I1
s(VVBN-TL
p354
VNNS$-TL
p355
tp356
I2
s(g7
VJJT
p357
tp358
I1
s(VNP-TL
p359
VWPS
p360
tp361
I1
s(VJJ-TL
p362
VOD-TL
p363
tp364
I1
s(VVBG-HL
p365
V''
p366
tp367
I1
s(VBED
p368
VBEG
p369
tp370
I3
s(VNNS
p371
VVB
p372
tp373
I85
s(VNNS
p374
VMD
p375
tp376
I87
s(VNN-TL
p377
VBEZ
p378
tp379
I21
s(VPPSS+BER
p380
VQL
p381
tp382
I1
s(VPN
p383
VHVZ
p384
tp385
I3
s(VOD
p386
VVBN
p387
tp388
I2
s(VHV
p389
VDTI
p390
tp391
I1
s(VNNS-TL
p392
VVBN-TL
p393
tp394
I1
s(VABX
p395
VVBD
p396
tp397
I1
s(VWPS
p398
VDOZ
p399
tp400
I1
s(VNNS-TL
p401
VNNS-TL
p402
tp403
I3
s(VBER-HL
p404
VVBN-HL
p405
tp406
I1
s(VNNS
p407
VBE
p408
tp409
I7
s(g372
V``
p410
tp411
I7
s(g142
VNN
p412
tp413
I5
s(g148
g141
tp414
I27
s(VJJ-TL
p415
VNN
p416
tp417
I43
s(VCC
p418
VCD
p419
tp420
I46
s(VABN
p421
VRB
p422
tp423
I4
s(VPP$-TL
p424
VNN-TL
p425
tp426
I1
s(VIN
p427
VVBG-TL
p428
tp429
I1
s(VCC
p430
V``
p431
tp432
I9
s(VCD-TL
p433
VTO
p434
tp435
I1
s(VVBG
p436
VBEZ
p437
tp438
I6
s(VVBZ-HL
p439
VJJR-HL
p440
tp441
I1
s(VCC
p442
VQL
p443
tp444
I8
s(VCS
p445
V``
p446
tp447
I12
s(VNN
p448
VJJ
p449
tp450
I48
s(VVB
p451
VQL
p452
tp453
I7
s(VWRB
p454
VNP$
p455
tp456
I1
s(VAT
p457
VPN
p458
tp459
I2
s(VNN$
p460
VNPS$
p461
tp462
I1
s(VIN
p463
VIN
p464
tp465
I81
s(VNNS
p466
VCC
p467
tp468
I221
s(VNP
p469
VBER
p470
tp471
I11
s(VDTS
p472
VHV
p473
tp474
I1
s(VAP
p475
VPPSS
p476
tp477
I1
s(VIN-HL
p478
VCD-HL
p479
tp480
I3
s(VNPS$
p481
VVBG
p482
tp483
I1
s(VPPSS
p484
VPPLS
p485
tp486
I1
s(VVBN
p487
VDT
p488
tp489
I6
s(VHVD
p490
VIN
p491
tp492
I1
s(VJJR-TL
p493
VNP-TL
p494
tp495
I1
s(VHVG
p496
VAT
p497
tp498
I3
s(VNN-TL
p499
VDO
p500
tp501
I1
s(g7
VJJ
p502
tp503
I72
s(VPN
p504
VTO
p505
tp506
I3
s(VEX+BEZ
p507
g305
tp508
I1
s(VDO*
p509
VVB
p510
tp511
I9
s(V''
p512
VCC
p513
tp514
I8
s(VVBD
p515
VDTS
p516
tp517
I1
s(VJJ
p518
VBEZ
p519
tp520
I1
s(VBEDZ
p521
VJJ-TL
p522
tp523
I2
s(VJJ-TL
p524
VCC
p525
tp526
I3
s(VVB-HL
p527
VNN-HL
p528
tp529
I4
s(VNP
p530
VTO
p531
tp532
I23
s(VFW-AT-TL
p533
VNP$
p534
tp535
I1
s(VNP
p536
VNR
p537
tp538
I15
s(VPPLS
p539
VCS
p540
tp541
I1
s(VQL
p542
VJJR
p543
tp544
I9
s(VCD
p545
g109
tp546
I119
s(VNNS-TL
p547
VVBG
p548
tp549
I3
s(VRP
p550
VCC
p551
tp552
I10
s(VOD
p553
VNN-TL
p554
tp555
I1
s(VNN
p556
VEX
p557
tp558
I2
s(VDO
p559
g109
tp560
I2
s(VWRB
p561
VVBN
p562
tp563
I4
s(VNP$
p564
VQL
p565
tp566
I1
s(VVBN
p567
VMD*
p568
tp569
I1
s(VAT
p570
VNN-TL
p571
tp572
I250
s(VNNS-TL
p573
VBED
p574
tp575
I6
s(VNNS-TL
p576
VWPS
p577
tp578
I3
s(VDT
p579
VBEDZ
p580
tp581
I10
s(g7
VOD
p582
tp583
I3
s(VJJS
p584
VCD
p585
tp586
I3
s(VRP
p587
VRP
p588
tp589
I1
s(VNNS
p590
VNP-TL
p591
tp592
I2
s(VIN-TL
p593
VNNS$-TL
p594
tp595
I1
s(VDTS
p596
VVBG
p597
tp598
I1
s(VBEN
p599
VJJ
p600
tp601
I10
s(VDT
p602
VBEZ
p603
tp604
I18
s(VHVD
p605
VWDT
p606
tp607
I1
s(g68
V''
p608
tp609
I5
s(VIN
p610
VDTX
p611
tp612
I2
s(VNP-TL
p613
VMD
p614
tp615
I4
s(V``
p616
VPPS+MD
p617
tp618
I1
s(VRP
p619
VNN
p620
tp621
I6
s(VNP-TL
p622
VCC-TL
p623
tp624
I14
s(VRB
p625
VAP
p626
tp627
I10
s(VNP$
p628
VIN
p629
tp630
I1
s(VVBD
p631
VNP-TL
p632
tp633
I2
s(VBEZ*
p634
VVBG
p635
tp636
I1
s(VMD
p637
VJJ
p638
tp639
I1
s(VNN
p640
g68
tp641
I2
s(VBE
p642
VVBN
p643
tp644
I195
s(VNR
p645
VNNS
p646
tp647
I14
s(VPP$
p648
VVBZ
p649
tp650
I1
s(VNN-TL
p651
VJJ
p652
tp653
I8
s(VPPO
p654
VWPS
p655
tp656
I1
s(VCD
p657
VAT
p658
tp659
I5
s(VAP
p660
VNP-TL
p661
tp662
I1
s(VVBN
p663
VPP$
p664
tp665
I11
s(VNR-HL
p666
VIN-HL
p667
tp668
I1
s(VVB
p669
VCD
p670
tp671
I39
s(VNPS$
p672
VNP
p673
tp674
I1
s(VWDT
p675
VBEZ
p676
tp677
I8
s(VBE
p678
g109
tp679
I1
s(VAT
p680
VAP
p681
tp682
I132
s(VWDT
p683
VVBD
p684
tp685
I22
s(VNP
p686
VHVD
p687
tp688
I16
s(VNN
p689
V''
p690
tp691
I186
s(VPP$
p692
V``
p693
tp694
I1
s(VPPLS
p695
VNP
p696
tp697
I1
s(g305
VDTI
p698
tp699
I1
s(VNNS
p700
VNNS
p701
tp702
I18
s(VNP-TL
p703
g142
tp704
I1
s(g643
VTO
p705
tp706
I98
s(VJJ
p707
g68
tp708
I4
s(VNR
p709
V''
p710
tp711
I3
s(VRP
p712
VMD
p713
tp714
I1
s(VAP
p715
VWPS
p716
tp717
I1
s(VEX
p718
VBED
p719
tp720
I7
s(VDO
p721
VPPSS+BER
p722
tp723
I1
s(V''
p724
VNN
p725
tp726
I16
s(VPPO
p727
VVBN
p728
tp729
I1
s(VNN
p730
VPN
p731
tp732
I2
s(V``
p733
VDO
p734
tp735
I1
s(VRB
p736
VDOD
p737
tp738
I2
s(VAT
p739
VNP-TL
p740
tp741
I128
s(VNP-TL
p742
VNNS
p743
tp744
I5
s(V``
p745
VJJ
p746
tp747
I31
s(VBER
p748
VCD
p749
tp750
I2
s(VOD
p751
g109
tp752
I7
s(VOD
p753
VJJS
p754
tp755
I1
s(VVBD
p756
VWRB
p757
tp758
I5
s(VHVD
p759
VJJ
p760
tp761
I2
s(VWRB
p762
VNNS
p763
tp764
I9
s(VNNS
p765
V''
p766
tp767
I74
s(VABX
p768
VNN
p769
tp770
I2
s(VNP-HL
p771
VIN-HL
p772
tp773
I3
s(VPPS
p774
VVB
p775
tp776
I2
s(VWRB
p777
VDO
p778
tp779
I1
s(VNR
p780
VAP
p781
tp782
I2
s(VCC
p783
VJJS
p784
tp785
I1
s(VNPS$
p786
VNNS
p787
tp788
I1
s(VVBN
p789
g268
tp790
I1
s(VPPO
p791
VVBG
p792
tp793
I1
s(VNN
p794
VPPSS+BER
p795
tp796
I2
s(VNNS
p797
VVBZ
p798
tp799
I6
s(VPPO
p800
VAT
p801
tp802
I11
s(VNP
p803
VWDT
p804
tp805
I2
s(VPPSS+MD
p806
VRB
p807
tp808
I3
s(VDTI
p809
VAT
p810
tp811
I1
s(VHV
p812
VPPO
p813
tp814
I1
s(VBEN
p815
VAP
p816
tp817
I1
s(VHV
p818
VVBN
p819
tp820
I46
s(VPPS
p821
g148
tp822
I1
s(VJJ
p823
VCC
p824
tp825
I72
s(VNN-TL
p826
VNN$-TL
p827
tp828
I10
s(VCC
p829
VJJ-TL
p830
tp831
I16
s(VJJ-TL
p832
VNP$-TL
p833
tp834
I1
s(VPPS
p835
g7
tp836
I1
s(VPN
p837
VPPSS
p838
tp839
I3
s(VIN
p840
VWPO
p841
tp842
I4
s(VNR$
p843
VJJ
p844
tp845
I4
s(V--
p846
VCS
p847
tp848
I2
s(VVBN
p849
VDTI
p850
tp851
I2
s(VDT
p852
VIN
p853
tp854
I12
s(VEX
p855
VBEZ
p856
tp857
I19
s(VNP-TL
p858
VVBG-TL
p859
tp860
I1
s(VIN
p861
VNN-TL
p862
tp863
I130
s(VVB
p864
VCS
p865
tp866
I30
s(VVBG-HL
p867
VNNS
p868
tp869
I1
s(VUH
p870
VAT
p871
tp872
I1
s(g65
VNN
p873
tp874
I1
s(V''
p875
VVBN
p876
tp877
I3
s(g7
VFW-CC
p878
tp879
I1
s(VRB-HL
p880
VCC-HL
p881
tp882
I2
s(VCS
p883
VPPL
p884
tp885
I1
s(VOD
p886
VBED
p887
tp888
I1
s(VABN
p889
VCD
p890
tp891
I4
s(VNN-TL
p892
VCD-TL
p893
tp894
I15
s(VPP$
p895
VQL
p896
tp897
I4
s(VVB
p898
VBEZ
p899
tp900
I1
s(VWPS
p901
VHVD
p902
tp903
I8
s(VNN
p904
VPP$
p905
tp906
I4
s(VDTI
p907
VJJ-TL
p908
tp909
I1
s(VVBN
p910
VVBG
p911
tp912
I6
s(VNN$-TL
p913
VJJ-TL
p914
tp915
I1
s(VNNS
p916
V``
p917
tp918
I10
s(VCD
p919
VNN
p920
tp921
I149
s(VBER
p922
VVBN
p923
tp924
I39
s(VIN
p925
VBE
p926
tp927
I1
s(g7
VPPSS+HV
p928
tp929
I1
s(VVBZ-HL
p930
VNPS-HL
p931
tp932
I1
s(VNP-HL
p933
VVBZ-HL
p934
tp935
I5
s(g7
g7
tp936
I4
s(VHV
p937
VNN-TL
p938
tp939
I1
s(VABN
p940
VJJ-TL
p941
tp942
I2
s(VCD
p943
g7
tp944
I146
s(VJJ
p945
VVBN
p946
tp947
I7
s(VNN
p948
VQL
p949
tp950
I22
s(VNN-TL
p951
VVBN
p952
tp953
I2
s(VWDT
p954
VVB
p955
tp956
I2
s(VVBN
p957
V''
p958
tp959
I11
s(VPPSS+MD
p960
VDO
p961
tp962
I1
s(VABX
p963
VRB
p964
tp965
I1
s(VPPS+MD
p966
VBE
p967
tp968
I5
s(VNP-HL
p969
V,-HL
p970
tp971
I51
s(VNP$
p972
g109
tp973
I1
s(VPPS+BEZ
p974
VNN
p975
tp976
I1
s(VHVN
p977
VQL
p978
tp979
I1
s(VBEDZ
p980
VJJ
p981
tp982
I19
s(VVBN
p983
VAT
p984
tp985
I78
s(VIN-HL
p986
VJJ-HL
p987
tp988
I3
s(VCD-TL
p989
VNP-TL
p990
tp991
I21
s(g7
VBER
p992
tp993
I13
s(VNN-TL
p994
VRBR
p995
tp996
I1
s(g148
VCC
p997
tp998
I1
s(VDTS
p999
VRB
p1000
tp1001
I2
s(VNN-TL
p1002
g40
tp1003
I4
s(VNP
p1004
VDTI
p1005
tp1006
I2
s(VNP-TL
p1007
V''
p1008
tp1009
I4
s(g7
VRB
p1010
tp1011
I88
s(VVBD-HL
p1012
VCD-HL
p1013
tp1014
I2
s(VNNS$-TL
p1015
VVBG
p1016
tp1017
I1
s(V``
p1018
VCC
p1019
tp1020
I21
s(VVBN
p1021
VCD
p1022
tp1023
I14
s(VHVD
p1024
VNN
p1025
tp1026
I1
s(VVB
p1027
VJJR
p1028
tp1029
I5
s(V``
p1030
VABL
p1031
tp1032
I2
s(VNP
p1033
VHV
p1034
tp1035
I5
s(VVBG
p1036
VHVD
p1037
tp1038
I1
s(g917
VBER
p1039
tp1040
I4
s(VNR
p1041
g7
tp1042
I42
s(VRB
p1043
VPPS+BEZ
p1044
tp1045
I1
s(V--
p1046
VRB
p1047
tp1048
I4
s(VAP
p1049
VNN$
p1050
tp1051
I5
s(VRB
p1052
VCD
p1053
tp1054
I53
s(V``
p1055
VVBN
p1056
tp1057
I5
s(VHVD
p1058
VAP
p1059
tp1060
I4
s(VHVD
p1061
VHVN
p1062
tp1063
I1
s(g142
g1024
tp1064
I2
s(VVBD
p1065
VAP
p1066
tp1067
I21
s(VIN
p1068
VJJS
p1069
tp1070
I1
s(g56
g7
tp1071
I1
s(g754
VJJ
p1072
tp1073
I2
s(VNP$
p1074
VAP
p1075
tp1076
I2
s(VVBG
p1077
VNNS-TL
p1078
tp1079
I1
s(VBEDZ
p1080
VVBG
p1081
tp1082
I20
s(g148
VVB
p1083
tp1084
I1
s(g7
VNNS
p1085
tp1086
I77
s(VRB
p1087
VVBD
p1088
tp1089
I95
s(VNR-TL
p1090
VVB
p1091
tp1092
I1
s(VVBN
p1093
VCC
p1094
tp1095
I30
s(VDTS
p1096
VMD
p1097
tp1098
I1
s(g148
VIN
p1099
tp1100
I4
s(VUH
p1101
g7
tp1102
I3
s(VNN
p1103
VPPL
p1104
tp1105
I1
s(VVB
p1106
VRBT
p1107
tp1108
I1
s(VJJR
p1109
VPPS
p1110
tp1111
I1
s(g878
VFW-NNS
p1112
tp1113
I1
s(VAT-TL
p1114
VAP-TL
p1115
tp1116
I1
s(VNN
p1117
VVB
p1118
tp1119
I14
s(VABN
p1120
VAT
p1121
tp1122
I13
s(VBE
p1123
g7
tp1124
I1
s(VNNS
p1125
g68
tp1126
I2
s(VNP
p1127
VVBD
p1128
tp1129
I353
s(VNN-HL
p1130
V)-HL
p1131
tp1132
I2
s(VNN
p1133
VBE
p1134
tp1135
I6
s(VBEDZ
p1136
VVBN
p1137
tp1138
I222
s(VCS
p1139
VRBR
p1140
tp1141
I1
s(VCD
p1142
VVBD
p1143
tp1144
I11
s(VNP
p1145
VIN
p1146
tp1147
I252
s(g305
VNP
p1148
tp1149
I1
s(g7
VVBN-TL
p1150
tp1151
I7
s(VFW-AT-TL
p1152
VFW-JJ-TL
p1153
tp1154
I1
s(VPPS
p1155
VDOZ
p1156
tp1157
I6
s(VVBN
p1158
g7
tp1159
I51
s(VPPSS
p1160
VNPS
p1161
tp1162
I1
s(VVBG
p1163
VCD
p1164
tp1165
I10
s(VWRB
p1166
VCC
p1167
tp1168
I2
s(VVBG
p1169
VPPS
p1170
tp1171
I1
s(VDTS
p1172
VBED
p1173
tp1174
I2
s(VCS
p1175
VIN
p1176
tp1177
I30
s(VCD
p1178
VNR
p1179
tp1180
I2
s(VIN
p1181
VVBG
p1182
tp1183
I182
s(g1094
VVBN
p1184
tp1185
I36
s(VBER
p1186
VAP
p1187
tp1188
I2
s(VPPL
p1189
VAT
p1190
tp1191
I2
s(VNPS
p1192
VIN
p1193
tp1194
I9
s(VDOZ
p1195
VAT
p1196
tp1197
I1
s(VBEZ
p1198
VCS
p1199
tp1200
I8
s(VPN
p1201
VBEZ
p1202
tp1203
I2
s(VRB
p1204
VDTS
p1205
tp1206
I1
s(VDT
p1207
VNN-TL
p1208
tp1209
I1
s(VCC
p1210
VNNS
p1211
tp1212
I91
s(VNP
p1213
VMD*
p1214
tp1215
I1
s(VVBN-TL
p1216
VNNS-TL
p1217
tp1218
I38
s(VVB
p1219
VWRB
p1220
tp1221
I7
s(VPPSS
p1222
VRB
p1223
tp1224
I16
s(VNP-HL
p1225
VNN-HL
p1226
tp1227
I1
s(VBEZ
p1228
VWRB
p1229
tp1230
I2
s(g1211
VIN
p1231
tp1232
I921
s(VNP
p1233
VNN-TL
p1234
tp1235
I47
s(VRP
p1236
VIN
p1237
tp1238
I105
s(VDTI
p1239
VJJ
p1240
tp1241
I12
s(VNP$
p1242
VVBG
p1243
tp1244
I1
s(VVBG
p1245
VNP
p1246
tp1247
I19
s(VBEDZ
p1248
VDTI
p1249
tp1250
I1
s(VNNS-TL
p1251
VNR
p1252
tp1253
I1
s(VNN
p1254
VCD
p1255
tp1256
I18
s(VBEDZ
p1257
g22
tp1258
I2
s(VIN
p1259
g109
tp1260
I7
s(VRB
p1261
VJJR
p1262
tp1263
I2
s(VABX
p1264
g524
tp1265
I1
s(VPPSS+HVD
p1266
VRB
p1267
tp1268
I1
s(VIN
p1269
VPN
p1270
tp1271
I6
s(VNP
p1272
VABX
p1273
tp1274
I1
s(VVBG
p1275
VBEDZ
p1276
tp1277
I2
s(VVBG
p1278
VAT
p1279
tp1280
I159
s(VPPS
p1281
VDOD
p1282
tp1283
I8
s(VVBD
p1284
VRB
p1285
tp1286
I60
s(VFW-NN
p1287
VFW-IN+NN
p1288
tp1289
I1
s(VNN
p1290
VDOD
p1291
tp1292
I8
s(g7
g940
tp1293
I6
s(VCC
p1294
g718
tp1295
I9
s(VRBR
p1296
VVBG
p1297
tp1298
I1
s(VVBN
p1299
VPPS
p1300
tp1301
I2
s(VNN-TL
p1302
VNP
p1303
tp1304
I218
s(VWRB
p1305
g7
tp1306
I23
s(VNNS-TL
p1307
VVBZ
p1308
tp1309
I4
s(VVBZ-HL
p1310
VCD-HL
p1311
tp1312
I1
s(VNR
p1313
VVBD
p1314
tp1315
I18
s(VABX
p1316
VJJ
p1317
tp1318
I4
s(VNP$
p1319
VVBN
p1320
tp1321
I2
s(VNPS-HL
p1322
VIN-HL
p1323
tp1324
I1
s(VNP-HL
p1325
V)-HL
p1326
tp1327
I14
s(VNP-TL
p1328
VAT
p1329
tp1330
I1
s(VMD+HV
p1331
VVBN
p1332
tp1333
I1
s(VOD-TL
p1334
VNP-TL
p1335
tp1336
I2
s(VJJS
p1337
VNN
p1338
tp1339
I15
s(VNN$-TL
p1340
VQL
p1341
tp1342
I1
s(g7
VAP
p1343
tp1344
I17
s(g7
VHVN
p1345
tp1346
I1
s(VWPS
p1347
VVBD
p1348
tp1349
I75
s(VPPS+MD
p1350
VRB
p1351
tp1352
I1
s(g115
VJJT
p1353
tp1354
I5
s(VNP$
p1355
VNN
p1356
tp1357
I83
s(VNP
p1358
VWPO
p1359
tp1360
I1
s(VCC
p1361
VNP
p1362
tp1363
I224
s(VNP
p1364
VNN
p1365
tp1366
I204
s(VNN-TL
p1367
VHV
p1368
tp1369
I1
s(VEX
p1370
V``
p1371
tp1372
I1
s(VVB
p1373
VWDT
p1374
tp1375
I8
s(VTO
p1376
V``
p1377
tp1378
I9
s(VJJR
p1379
VIN
p1380
tp1381
I3
s(VVBG
p1382
VJJ
p1383
tp1384
I28
s(VVB
p1385
VWPS
p1386
tp1387
I1
s(g97
VBER
p1388
tp1389
I12
s(g355
VJJ
p1390
tp1391
I2
s(VBED
p1392
VJJ
p1393
tp1394
I6
s(VDTS
p1395
VNN
p1396
tp1397
I2
s(VBEZ
p1398
VJJ-TL
p1399
tp1400
I1
s(VVB
p1401
VPPO
p1402
tp1403
I72
s(VNN$
p1404
VVBZ
p1405
tp1406
I1
s(V``
p1407
VJJ-TL
p1408
tp1409
I6
s(V''
p1410
VVBG
p1411
tp1412
I3
s(VAT
p1413
VRB
p1414
tp1415
I11
s(V--
p1416
VJJ
p1417
tp1418
I4
s(VNNS
p1419
g142
tp1420
I4
s(VCD
p1421
VJJ-TL
p1422
tp1423
I11
s(VJJ
p1424
VOD
p1425
tp1426
I2
s(VCC
p1427
VPP$
p1428
tp1429
I50
s(VNNS
p1430
VDT
p1431
tp1432
I12
s(VNN-TL
p1433
VNNS
p1434
tp1435
I45
s(VNNS$
p1436
VNR
p1437
tp1438
I1
s(VPPSS+BER
p1439
VNNS
p1440
tp1441
I1
s(VCD
p1442
VCS
p1443
tp1444
I5
s(VJJ
p1445
VNP
p1446
tp1447
I55
s(VVBD
p1448
VAT-TL
p1449
tp1450
I1
s(VVBD
p1451
VABX
p1452
tp1453
I1
s(VNN$-TL
p1454
VRB
p1455
tp1456
I1
s(VNN
p1457
VNN-TL
p1458
tp1459
I18
s(VEX
p1460
VHV
p1461
tp1462
I1
s(VNN-HL
p1463
VVBD-HL
p1464
tp1465
I1
s(VHV
p1466
VAT
p1467
tp1468
I26
s(VNN-TL
p1469
VPPL
p1470
tp1471
I1
s(VCS
p1472
VDT+BEZ
p1473
tp1474
I1
s(VVBZ
p1475
VRP
p1476
tp1477
I11
s(g148
VDTI
p1478
tp1479
I1
s(VBED
p1480
VVBG
p1481
tp1482
I13
s(VNP
p1483
VDOZ
p1484
tp1485
I2
s(VBEZ
p1486
VDTI
p1487
tp1488
I1
s(g813
VABX
p1489
tp1490
I1
s(VHVZ
p1491
VNN
p1492
tp1493
I1
s(VPPSS
p1494
g7
tp1495
I2
s(VPPSS+BEM
p1496
VRB
p1497
tp1498
I2
s(VVBN
p1499
VNN$
p1500
tp1501
I1
s(VCC
p1502
VNN
p1503
tp1504
I195
s(VVBN-HL
p1505
VJJ-HL
p1506
tp1507
I1
s(VNNS-TL
p1508
V''
p1509
tp1510
I1
s(VBER
p1511
VNNS
p1512
tp1513
I5
s(VCC-TL
p1514
VCD-TL
p1515
tp1516
I1
s(g923
VRP
p1517
tp1518
I41
s(VPP$
p1519
VVBG
p1520
tp1521
I10
s(g142
V--
p1522
tp1523
I1
s(VVBG
p1524
VBER
p1525
tp1526
I1
s(VIN
p1527
VCD-TL
p1528
tp1529
I21
s(VIN
p1530
VAT-TL
p1531
tp1532
I4
s(V``
p1533
VPPSS+BEM
p1534
tp1535
I2
s(VDO
p1536
VPPO
p1537
tp1538
I1
s(g1217
VNN
p1539
tp1540
I14
s(VPPS
p1541
VCC
p1542
tp1543
I5
s(VJJ
p1544
VPPS
p1545
tp1546
I3
s(g142
VNP
p1547
tp1548
I8
s(VMD
p1549
VQL
p1550
tp1551
I3
s(VVBG
p1552
VWDT
p1553
tp1554
I3
s(VNN-HL
p1555
VCC-HL
p1556
tp1557
I1
s(VVBN
p1558
VBEG
p1559
tp1560
I1
s(VWRB
p1561
VCD
p1562
tp1563
I1
s(VNPS
p1564
VBED
p1565
tp1566
I8
s(VVBN
p1567
VBER
p1568
tp1569
I1
s(VCD
p1570
VMD
p1571
tp1572
I7
s(VDTS
p1573
VIN
p1574
tp1575
I8
s(VRP
p1576
VNP
p1577
tp1578
I3
s(VNPS
p1579
VHVZ
p1580
tp1581
I1
s(V''
p1582
VAT
p1583
tp1584
I3
s(VCS
p1585
VEX
p1586
tp1587
I16
s(VVBD
p1588
VABN
p1589
tp1590
I4
s(VVBG
p1591
g148
tp1592
I1
s(VBER
p1593
g268
tp1594
I3
s(g1008
VIN
p1595
tp1596
I34
s(VCD
p1597
VRP
p1598
tp1599
I4
s(VNP-TL
p1600
VTO
p1601
tp1602
I1
s(VPPO
p1603
VQL
p1604
tp1605
I4
s(VVB
p1606
VDTS
p1607
tp1608
I4
s(VVBZ
p1609
VRB
p1610
tp1611
I10
s(g1359
VAT
p1612
tp1613
I1
s(VBE
p1614
VDTI
p1615
tp1616
I4
s(VPPO
p1617
VABN
p1618
tp1619
I3
s(V--
p1620
VMD
p1621
tp1622
I1
s(VPPS
p1623
g634
tp1624
I1
s(VJJ
p1625
VNNS$
p1626
tp1627
I2
s(VVB
p1628
VVB
p1629
tp1630
I5
s(VDTI
p1631
VCD
p1632
tp1633
I4
s(VNN$-TL
p1634
VNN-TL
p1635
tp1636
I6
s(g827
VNN
p1637
tp1638
I14
s(VNN$-HL
p1639
VJJ-HL
p1640
tp1641
I1
s(VWDT
p1642
VJJ
p1643
tp1644
I3
s(VVBG
p1645
VBED
p1646
tp1647
I1
s(VPPSS
p1648
VBEDZ*
p1649
tp1650
I1
s(VNNS
p1651
VEX
p1652
tp1653
I1
s(VJJ
p1654
g148
tp1655
I1
s(V``
p1656
VNN-TL
p1657
tp1658
I13
s(g7
VWPO
p1659
tp1660
I1
s(VNNS
p1661
g1093
tp1662
I80
s(VABN
p1663
VJJ
p1664
tp1665
I2
s(VDTI
p1666
VVBD
p1667
tp1668
I1
s(VVB
p1669
VPPS
p1670
tp1671
I4
s(VJJS
p1672
VJJ-TL
p1673
tp1674
I1
s(VVBZ
p1675
VNP-TL
p1676
tp1677
I1
s(VNP
p1678
VAP
p1679
tp1680
I9
s(VVB
p1681
VEX
p1682
tp1683
I2
s(VNNS$
p1684
VJJ
p1685
tp1686
I1
s(g305
VIN
p1687
tp1688
I8
s(g68
VRB-HL
p1689
tp1690
I1
s(VOD-TL
p1691
VNP
p1692
tp1693
I1
s(VPPSS+HV
p1694
VBEN
p1695
tp1696
I3
s(VBEZ
p1697
VBEG
p1698
tp1699
I5
s(VJJ-HL
p1700
VNN-HL
p1701
tp1702
I13
s(g887
VCS
p1703
tp1704
I1
s(V''
p1705
g109
tp1706
I207
s(VWDT
p1707
g109
tp1708
I1
s(VNNS
p1709
VVBG
p1710
tp1711
I48
s(VNNS-HL
p1712
VIN-HL
p1713
tp1714
I6
s(VNNS-TL
p1715
VQL
p1716
tp1717
I1
s(g7
VBEN
p1718
tp1719
I1
s(VBE
p1720
VRP
p1721
tp1722
I3
s(VPN
p1723
VWPS
p1724
tp1725
I2
s(VBEDZ
p1726
VRBR
p1727
tp1728
I1
s(V--
p1729
VVBG
p1730
tp1731
I6
s(VVBD
p1732
VCD
p1733
tp1734
I53
s(VBEG
p1735
VNP
p1736
tp1737
I1
s(VWDT
p1738
VBER
p1739
tp1740
I6
s(VBE
p1741
VNR
p1742
tp1743
I1
s(VNP-TL
p1744
VVBN-TL
p1745
tp1746
I3
s(VCC
p1747
VNPS
p1748
tp1749
I1
s(V--
p1750
VAP
p1751
tp1752
I2
s(VDT
p1753
VHVD
p1754
tp1755
I2
s(VJJ
p1756
VEX
p1757
tp1758
I1
s(VNPS-TL
p1759
VVBD
p1760
tp1761
I1
s(VCS
p1762
VPPS+BEZ
p1763
tp1764
I1
s(VCC
p1765
VRBR
p1766
tp1767
I4
s(VRB-HL
p1768
V,-HL
p1769
tp1770
I1
s(VNNS
p1771
VHVG
p1772
tp1773
I1
s(g1270
V--
p1774
tp1775
I1
s(g731
VMD
p1776
tp1777
I2
s(VVB
p1778
VABX
p1779
tp1780
I1
s(VVB
p1781
g109
tp1782
I38
s(VIN
p1783
g895
tp1784
I291
s(VNNS
p1785
VHVZ
p1786
tp1787
I6
s(VAP
p1788
VCD
p1789
tp1790
I46
s(VNN
p1791
VWRB
p1792
tp1793
I27
s(VWDT
p1794
VIN
p1795
tp1796
I3
s(VCC
p1797
VJJR
p1798
tp1799
I3
s(VNN-HL
p1800
VRP-HL
p1801
tp1802
I1
s(VNP-HL
p1803
V(-HL
p1804
tp1805
I9
s(VVB
p1806
VNP-TL
p1807
tp1808
I1
s(VABN
p1809
VNN-TL
p1810
tp1811
I2
s(VNN-TL
p1812
VWRB
p1813
tp1814
I3
s(VPPSS
p1815
g509
tp1816
I6
s(g148
VAT
p1817
tp1818
I4
s(VNN-TL
p1819
V--
p1820
tp1821
I2
s(VNNS-TL
p1822
VIN-TL
p1823
tp1824
I8
s(VPN
p1825
VIN
p1826
tp1827
I8
s(VBE
p1828
VAT
p1829
tp1830
I40
s(VBE
p1831
VRB
p1832
tp1833
I12
s(VCC-TL
p1834
VVBG-TL
p1835
tp1836
I1
s(VVB
p1837
VPPSS+MD
p1838
tp1839
I2
s(VAP
p1840
VNPS
p1841
tp1842
I4
s(g311
VVB
p1843
tp1844
I2
s(g7
VVBD
p1845
tp1846
I189
s(VCC-HL
p1847
VNP-HL
p1848
tp1849
I1
s(VBEDZ
p1850
V``
p1851
tp1852
I3
s(VHVD
p1853
g1030
tp1854
I3
s(VNR
p1855
g1379
tp1856
I1
s(VBEZ
p1857
g7
tp1858
I3
s(VDT
p1859
VCD
p1860
tp1861
I9
s(VNNS$
p1862
VJJ-TL
p1863
tp1864
I1
s(VJJ-TL
p1865
VNPS-TL
p1866
tp1867
I2
s(g68
VHVD-HL
p1868
tp1869
I1
s(VAT-TL
p1870
VNP
p1871
tp1872
I1
s(VCS
p1873
VNNS
p1874
tp1875
I38
s(g7
VWRB
p1876
tp1877
I53
s(VVBG
p1878
VRBR
p1879
tp1880
I3
s(VNNS-TL
p1881
VVB
p1882
tp1883
I4
s(VIN
p1884
VNR$
p1885
tp1886
I15
s(VDTI
p1887
VVB
p1888
tp1889
I2
s(VBEZ
p1890
VNP
p1891
tp1892
I10
s(VNP
p1893
VNPS
p1894
tp1895
I15
s(VNP-TL
p1896
VMD-TL
p1897
tp1898
I1
s(VVBN
p1899
VABX
p1900
tp1901
I2
s(g7
VPPSS
p1902
tp1903
I20
s(VCC
p1904
g241
tp1905
I4
s(VQLP
p1906
VTO
p1907
tp1908
I1
s(VCS
p1909
VPPS
p1910
tp1911
I93
s(VVBN-HL
p1912
g365
tp1913
I1
s(VDTS
p1914
VCD
p1915
tp1916
I5
s(VNN-HL
p1917
VVBZ-HL
p1918
tp1919
I9
s(VNP$-TL
p1920
VJJ-TL
p1921
tp1922
I1
s(VDTS
p1923
V``
p1924
tp1925
I1
s(VNN$-TL
p1926
VCD
p1927
tp1928
I2
s(VRP
p1929
VNP$
p1930
tp1931
I3
s(VCC
p1932
VPPS
p1933
tp1934
I37
s(VNN-TL
p1935
VVBN-TL
p1936
tp1937
I1
s(VRB
p1938
VDO
p1939
tp1940
I2
s(VNNS
p1941
VNP
p1942
tp1943
I5
s(VPPS
p1944
g19
tp1945
I46
s(VNNS-TL
p1946
VCD
p1947
tp1948
I1
s(VPPO
p1949
VMD*
p1950
tp1951
I1
s(VPPSS+HV
p1952
VHVN
p1953
tp1954
I2
s(VCC
p1955
VWPS
p1956
tp1957
I2
s(g346
V''
p1958
tp1959
I23
s(VCS
p1960
VRB
p1961
tp1962
I6
s(VVBG
p1963
VWPS
p1964
tp1965
I1
s(VEX
p1966
VBER
p1967
tp1968
I11
s(g7
VHV
p1969
tp1970
I17
s(VDT+BEZ
p1971
VWRB
p1972
tp1973
I1
s(VEX
p1974
VDTI
p1975
tp1976
I1
s(VNP
p1977
VNP+BEZ
p1978
tp1979
I1
s(g68
VDO*
p1980
tp1981
I1
s(VDTI
p1982
VJJR
p1983
tp1984
I1
s(g899
VAT
p1985
tp1986
I91
s(VPPS+BEZ
p1987
VQL
p1988
tp1989
I1
s(VWRB
p1990
VNP
p1991
tp1992
I14
s(VDOD
p1993
VWDT
p1994
tp1995
I1
s(VVB
p1996
VAP
p1997
tp1998
I21
s(VRB-HL
p1999
VVBN-HL
p2000
tp2001
I1
s(VMD
p2002
VIN
p2003
tp2004
I2
s(VCC
p2005
VBE
p2006
tp2007
I1
s(VHVD
p2008
VBEN
p2009
tp2010
I34
s(VPPSS
p2011
VVBD
p2012
tp2013
I51
s(VJJ-TL
p2014
VJJ
p2015
tp2016
I3
s(VJJ
p2017
V--
p2018
tp2019
I3
s(VABN
p2020
VNN
p2021
tp2022
I4
s(VCS
p2023
VPPSS
p2024
tp2025
I75
s(VCS
p2026
VNP
p2027
tp2028
I58
s(VNN
p2029
VCD-TL
p2030
tp2031
I1
s(VBEN
p2032
VRB
p2033
tp2034
I3
s(VNP-HL
p2035
g1847
tp2036
I1
s(g1745
VNN
p2037
tp2038
I3
s(VRBT
p2039
VVBN
p2040
tp2041
I2
s(VCC
p2042
VVBZ
p2043
tp2044
I11
s(VVBZ
p2045
V''
p2046
tp2047
I3
s(VBEG
p2048
VVBN
p2049
tp2050
I27
s(g148
VCD
p2051
tp2052
I6
s(VNNS
p2053
VQL
p2054
tp2055
I7
s(g1081
g1236
tp2056
I23
s(VNPS
p2057
VQL
p2058
tp2059
I1
s(g896
VJJ
p2060
tp2061
I88
s(VIN-HL
p2062
VNNS-HL
p2063
tp2064
I13
s(VCC
p2065
VBEDZ
p2066
tp2067
I14
s(VVBN
p2068
VIN
p2069
tp2070
I582
s(VVB
p2071
VPPLS
p2072
tp2073
I7
s(VRB
p2074
VVBN
p2075
tp2076
I93
s(VJJ-TL
p2077
VVBD-TL
p2078
tp2079
I1
s(VVBZ-HL
p2080
VNP-HL
p2081
tp2082
I3
s(VAP
p2083
g109
tp2084
I4
s(VNN
p2085
g1593
tp2086
I18
s(VDOD
p2087
VPPO
p2088
tp2089
I1
s(VMD
p2090
VVB
p2091
tp2092
I344
s(VDT
p2093
VCS
p2094
tp2095
I1
s(VVBD
p2096
VEX
p2097
tp2098
I8
s(V--
p2099
VNN-TL
p2100
tp2101
I5
s(V--
p2102
VPPSS+MD
p2103
tp2104
I1
s(VBEZ
p2105
V``
p2106
tp2107
I3
s(VABN
p2108
VVBN
p2109
tp2110
I1
s(VNNS-HL
p2111
VVBG-HL
p2112
tp2113
I1
s(VNP-TL
p2114
g1454
tp2115
I6
s(g142
VCC
p2116
tp2117
I5
s(VOD
p2118
VJJ
p2119
tp2120
I22
s(VIN
p2121
VDT
p2122
tp2123
I105
s(g611
VNN
p2124
tp2125
I1
s(VBER
p2126
V''
p2127
tp2128
I1
s(VNP-TL
p2129
V--
p2130
tp2131
I1
s(VBEM
p2132
VVBG
p2133
tp2134
I3
s(VRB
p2135
VVBG
p2136
tp2137
I27
s(VNNS-TL
p2138
VDOD
p2139
tp2140
I1
s(VIN-TL
p2141
VNN-TL
p2142
tp2143
I39
s(V``
p2144
VBEZ
p2145
tp2146
I4
s(VNNS-HL
p2147
VJJR-HL
p2148
tp2149
I1
s(VMD-HL
p2150
VBE-HL
p2151
tp2152
I1
s(VRBR
p2153
VWRB
p2154
tp2155
I1
s(VRB
p2156
VDO*
p2157
tp2158
I1
s(VCS
p2159
VDTS
p2160
tp2161
I2
s(VVB
p2162
VPPL
p2163
tp2164
I2
s(VBEDZ
p2165
VJJT
p2166
tp2167
I2
s(VCC
p2168
VVBD
p2169
tp2170
I106
s(VVBN
p2171
g148
tp2172
I3
s(VNN-TL
p2173
VNP$
p2174
tp2175
I9
s(VPPSS+BEM
p2176
g305
tp2177
I2
s(VDOD
p2178
VJJ
p2179
tp2180
I1
s(VMD*
p2181
VBE
p2182
tp2183
I6
s(g268
VIN
p2184
tp2185
I1
s(g1449
VNN-TL
p2186
tp2187
I16
s(VNNS-TL
p2188
VJJ
p2189
tp2190
I1
s(VHV
p2191
VDTS
p2192
tp2193
I2
s(g1402
VTO
p2194
tp2195
I17
s(VIN
p2196
VCD
p2197
tp2198
I463
s(g1900
VIN
p2199
tp2200
I10
s(VNNS-HL
p2201
VNN-HL
p2202
tp2203
I4
s(VVB-HL
p2204
VTO-HL
p2205
tp2206
I1
s(VVBN
p2207
VOD
p2208
tp2209
I2
s(VABN
p2210
VIN
p2211
tp2212
I21
s(VJJT
p2213
VNN
p2214
tp2215
I34
s(VEX
p2216
VBEDZ
p2217
tp2218
I12
s(VVBD
p2219
VPPSS
p2220
tp2221
I12
s(VJJ
p2222
VIN
p2223
tp2224
I114
s(VBEN
p2225
VNN
p2226
tp2227
I2
s(g1182
VCC
p2228
tp2229
I22
s(VEX
p2230
VMD
p2231
tp2232
I15
s(g268
VDT
p2233
tp2234
I2
s(VCS
p2235
VCD
p2236
tp2237
I19
s(VCC-HL
p2238
VNNS-HL
p2239
tp2240
I2
s(VNNS
p2241
VDTI
p2242
tp2243
I1
s(VHVN
p2244
VAT
p2245
tp2246
I3
s(g2063
VAT-HL
p2247
tp2248
I1
s(VVBD
p2249
VTO
p2250
tp2251
I60
s(VCD-HL
p2252
V(-HL
p2253
tp2254
I8
s(g1610
VIN
p2255
tp2256
I208
s(VJJ-TL
p2257
VVBG-TL
p2258
tp2259
I1
s(VCC
p2260
VOD
p2261
tp2262
I7
s(VRBR
p2263
VTO
p2264
tp2265
I1
s(VPN
p2266
VDT$
p2267
tp2268
I1
s(VDO
p2269
VNN
p2270
tp2271
I2
s(VPPO
p2272
VJJ
p2273
tp2274
I10
s(VEX
p2275
VBEDZ*
p2276
tp2277
I1
s(VVBN
p2278
VJJ
p2279
tp2280
I42
s(VNP-HL
p2281
V--
p2282
tp2283
I1
s(VHVD*
p2284
VVBN
p2285
tp2286
I1
s(VBER
p2287
VCS
p2288
tp2289
I1
s(VNN
p2290
g2048
tp2291
I5
s(VNN-TL
p2292
VCC
p2293
tp2294
I55
s(g295
VWRB
p2295
tp2296
I1
s(VNNS$
p2297
VNNS
p2298
tp2299
I8
s(V''
p2300
VBEZ
p2301
tp2302
I3
s(VCD
p2303
VIN
p2304
tp2305
I182
s(VRP
p2306
g109
tp2307
I16
s(VPN
p2308
g109
tp2309
I2
s(VNN
p2310
g291
tp2311
I2441
s(V``
p2312
VPPSS+BER
p2313
tp2314
I4
s(VIN-HL
p2315
g867
tp2316
I1
s(VPPO
p2317
VNNS
p2318
tp2319
I2
s(VNP-TL
p2320
VHV
p2321
tp2322
I1
s(g7
VHVD
p2323
tp2324
I8
s(VDT
p2325
VNP
p2326
tp2327
I4
s(VMD
p2328
g7
tp2329
I3
s(VNP-HL
p2330
VNN-TL-HL
p2331
tp2332
I1
s(VCC-TL
p2333
VNP
p2334
tp2335
I1
s(VCS
p2336
VVBG
p2337
tp2338
I56
s(VQLP
p2339
g7
tp2340
I1
s(VNN
p2341
VRBR
p2342
tp2343
I18
s(g68
g707
tp2344
I4
s(VNR
p2345
VHVD
p2346
tp2347
I1
s(VNN-TL
p2348
VDT
p2349
tp2350
I1
s(VPPS
p2351
VRBR
p2352
tp2353
I2
s(VHV
p2354
VIN
p2355
tp2356
I2
s(g7
VRBR
p2357
tp2358
I2
s(VVBG-TL
p2359
VNN-TL
p2360
tp2361
I11
s(VNN$-TL
p2362
VOD
p2363
tp2364
I1
s(VWP$
p2365
VNNS
p2366
tp2367
I2
s(g1739
VTO
p2368
tp2369
I5
s(VNNS$-TL
p2370
VNP
p2371
tp2372
I3
s(VVBN
p2373
VPPL
p2374
tp2375
I1
s(VBER
p2376
VNR
p2377
tp2378
I1
s(VPPLS
p2379
g109
tp2380
I3
s(VRB
p2381
VDOD*
p2382
tp2383
I1
s(VRP
p2384
VABL
p2385
tp2386
I1
s(VNR
p2387
VVBG
p2388
tp2389
I1
s(VVBG
p2390
VABX
p2391
tp2392
I1
s(VWRB
p2393
VAT
p2394
tp2395
I47
s(VBEDZ
p2396
VCC
p2397
tp2398
I3
s(g7
g2216
tp2399
I8
s(VNN
p2400
VRP
p2401
tp2402
I9
s(VNPS
p2403
VMD
p2404
tp2405
I7
s(V``
p2406
VPN
p2407
tp2408
I2
s(VJJ
p2409
g1735
tp2410
I1
s(VDO
p2411
VDT
p2412
tp2413
I1
s(VCD
p2414
g1192
tp2415
I7
s(VJJR
p2416
V''
p2417
tp2418
I1
s(VVBZ
p2419
VNR
p2420
tp2421
I2
s(g1282
g864
tp2422
I8
s(g44
VNN-TL
p2423
tp2424
I9
s(VWRB
p2425
VMD*
p2426
tp2427
I1
s(VWDT
p2428
VNN-TL
p2429
tp2430
I2
s(g623
VNP-TL
p2431
tp2432
I10
s(VJJ-TL
p2433
VNNS$
p2434
tp2435
I1
s(VRB-TL
p2436
V''
p2437
tp2438
I1
s(g7
VFW-IN
p2439
tp2440
I1
s(VIN
p2441
VAT
p2442
tp2443
I2544
s(g562
g142
tp2444
I1
s(VJJ
p2445
VNN
p2446
tp2447
I1266
s(VCC
p2448
VDT+BEZ
p2449
tp2450
I2
s(g2449
VVBN
p2451
tp2452
I1
s(VPPO
p2453
VWDT
p2454
tp2455
I2
s(VHVN
p2456
VVBN
p2457
tp2458
I1
s(VNP-TL
p2459
VJJ
p2460
tp2461
I3
s(VNP$-TL
p2462
VNN
p2463
tp2464
I1
s(VBEZ
p2465
VDT
p2466
tp2467
I4
s(VNNS
p2468
VMD*
p2469
tp2470
I1
s(VIN
p2471
g268
tp2472
I1
s(VPPO
p2473
VIN
p2474
tp2475
I49
s(VNR
p2476
VNN
p2477
tp2478
I62
s(VCS
p2479
VPPSS+MD
p2480
tp2481
I1
s(g2091
VDT
p2482
tp2483
I23
s(VCC
p2484
VDTS
p2485
tp2486
I4
s(g148
VPPSS
p2487
tp2488
I1
s(VJJ-TL
p2489
VNPS
p2490
tp2491
I3
s(VBE
p2492
VNN-TL
p2493
tp2494
I1
s(VRBR
p2495
V''
p2496
tp2497
I1
s(VABN-HL
p2498
VIN-HL
p2499
tp2500
I1
s(VJJ-HL
p2501
V)-HL
p2502
tp2503
I4
s(g106
V``
p2504
tp2505
I1
s(VBEDZ
p2506
g305
tp2507
I13
s(g142
g7
tp2508
I3
s(VJJ-TL
p2509
VCD-TL
p2510
tp2511
I1
s(VAT
p2512
V``
p2513
tp2514
I35
s(VVBG
p2515
VABN
p2516
tp2517
I1
s(VNP
p2518
VPPL
p2519
tp2520
I1
s(VDTI-HL
p2521
VJJ-HL
p2522
tp2523
I1
s(g7
VTO
p2524
tp2525
I15
s(g305
VWDT
p2526
tp2527
I1
s(VBER
p2528
VJJS
p2529
tp2530
I1
s(VNN
p2531
VNP-TL
p2532
tp2533
I3
s(VNN-TL
p2534
g142
tp2535
I3
s(VMD
p2536
VEX
p2537
tp2538
I1
s(VPPO
p2539
VDO
p2540
tp2541
I1
s(VCC
p2542
VIN
p2543
tp2544
I43
s(g7
VWP$
p2545
tp2546
I7
s(VHVZ
p2547
g977
tp2548
I3
s(VVBD
p2549
VRBR
p2550
tp2551
I3
s(VWRB
p2552
VPPSS+BER
p2553
tp2554
I1
s(g681
VNN-TL
p2555
tp2556
I6
s(VNP
p2557
g1822
tp2558
I4
s(VNP
p2559
VJJ
p2560
tp2561
I13
s(VHVZ
p2562
VEX
p2563
tp2564
I1
s(VAT-HL
p2565
VVBG-HL
p2566
tp2567
I1
s(VFW-NN
p2568
VTO
p2569
tp2570
I1
s(VCS
p2571
VQL
p2572
tp2573
I1
s(VNP
p2574
VPP$
p2575
tp2576
I1
s(g1062
VCS
p2577
tp2578
I2
s(g1234
VNN
p2579
tp2580
I122
s(VUH
p2581
VCC
p2582
tp2583
I1
s(VRB
p2584
VHVZ
p2585
tp2586
I13
s(VRB
p2587
VNN$
p2588
tp2589
I1
s(g485
VVB
p2590
tp2591
I1
s(VNP-TL
p2592
VNPS-TL
p2593
tp2594
I4
s(VNN
p2595
VTO
p2596
tp2597
I157
s(VHV
p2598
VNNS
p2599
tp2600
I2
s(VNPS
p2601
VNN-TL
p2602
tp2603
I1
s(VJJ
p2604
V``
p2605
tp2606
I9
s(VCS
p2607
VPP$
p2608
tp2609
I23
s(VVBD
p2610
VVBN
p2611
tp2612
I9
s(VVBG
p2613
g268
tp2614
I3
s(g1792
VPPS
p2615
tp2616
I37
s(VPPS
p2617
VMD
p2618
tp2619
I81
s(VPPS
p2620
VRB
p2621
tp2622
I38
s(VPPS
p2623
VVBD
p2624
tp2625
I289
s(VNR
p2626
VTO
p2627
tp2628
I10
s(V''
p2629
VWDT
p2630
tp2631
I1
s(VPN
p2632
g7
tp2633
I1
s(VPPS+BEZ-HL
p2634
VJJ-HL
p2635
tp2636
I1
s(VNN$
p2637
g584
tp2638
I3
s(VNP-TL
p2639
V(-HL
p2640
tp2641
I2
s(VNN-TL
p2642
VAT
p2643
tp2644
I5
s(VWRB
p2645
VPP$
p2646
tp2647
I5
s(VJJ
p2648
VRB
p2649
tp2650
I9
s(g865
VAP
p2651
tp2652
I16
s(VQL
p2653
VJJT
p2654
tp2655
I1
s(VBED
p2656
VCD
p2657
tp2658
I4
s(VPPSS+MD
p2659
g305
tp2660
I1
s(VRP
p2661
VBEZ
p2662
tp2663
I1
s(g68
VBEZ
p2664
tp2665
I1
s(VNNS
p2666
VTO
p2667
tp2668
I87
s(g381
VQL
p2669
tp2670
I5
s(VNN-TL
p2671
g268
tp2672
I2
s(VVBD
p2673
VJJS
p2674
tp2675
I2
s(VIN
p2676
VRBT
p2677
tp2678
I1
s(VDTS
p2679
VWPS
p2680
tp2681
I9
s(VRBR
p2682
VAT
p2683
tp2684
I2
s(g2009
g2068
tp2685
I70
s(VAP
p2686
VBER
p2687
tp2688
I1
s(VDTI
p2689
VVBN
p2690
tp2691
I2
s(VIN
p2692
VCD$
p2693
tp2694
I2
s(g305
VDO
p2695
tp2696
I1
s(VHVZ
p2697
VVBN
p2698
tp2699
I85
s(VNN
p2700
g268
tp2701
I11
s(VBE
p2702
VQL
p2703
tp2704
I6
s(VNNS
p2705
VPP$
p2706
tp2707
I4
s(VNNS
p2708
VBEDZ
p2709
tp2710
I15
s(VHVZ
p2711
VNR
p2712
tp2713
I1
s(VNNS
p2714
VCS
p2715
tp2716
I73
s(g142
VBED
p2717
tp2718
I1
s(VBED
p2719
VAP
p2720
tp2721
I3
s(VJJ
p2722
VPPS+BEZ
p2723
tp2724
I1
s(VVBG
p2725
VTO
p2726
tp2727
I21
s(VRB
p2728
VPPSS
p2729
tp2730
I5
s(VNN-HL
p2731
VIN-HL
p2732
tp2733
I9
s(VPPSS
p2734
VMD*
p2735
tp2736
I12
s(VVBD
p2737
VJJ-TL
p2738
tp2739
I8
s(VJJ
p2740
g2708
tp2741
I452
s(VIN-HL
p2742
VNP-HL
p2743
tp2744
I5
s(VVB
p2745
VABN
p2746
tp2747
I4
s(VNN$
p2748
VOD
p2749
tp2750
I5
s(VNN
p2751
VHVZ
p2752
tp2753
I38
s(VAP-HL
p2754
VTO-HL
p2755
tp2756
I1
s(VABN
p2757
VNPS
p2758
tp2759
I2
s(VOD
p2760
V--
p2761
tp2762
I1
s(g2624
g2026
tp2763
I109
s(VVB-TL
p2764
g2436
tp2765
I1
s(g268
VAP
p2766
tp2767
I1
s(VNP-TL
p2768
VNN
p2769
tp2770
I16
s(V``
p2771
g1912
tp2772
I1
s(VNN$
p2773
VVBG
p2774
tp2775
I1
s(VNR
p2776
VNR
p2777
tp2778
I3
s(VWRB
p2779
g109
tp2780
I5
s(VWDT
p2781
g305
tp2782
I1
s(VNR$
p2783
VJJ-TL
p2784
tp2785
I1
s(VDTS
p2786
VVBN
p2787
tp2788
I1
s(g68
VPPSS+BER
p2789
tp2790
I1
s(g2431
VVBZ
p2791
tp2792
I1
s(VWPS
p2793
VBEZ
p2794
tp2795
I16
s(VRB
p2796
VEX
p2797
tp2798
I2
s(g1534
VAT
p2799
tp2800
I1
s(VNN-HL
p2801
VBEDZ-HL
p2802
tp2803
I1
s(V``
p2804
g305
tp2805
I1
s(VPPSS+BEM
p2806
VVBG
p2807
tp2808
I1
s(VNP
p2809
VDT
p2810
tp2811
I3
s(VCS
p2812
VBEDZ
p2813
tp2814
I1
s(VNP
p2815
VVB
p2816
tp2817
I8
s(g305
VAT
p2818
tp2819
I8
s(VNP-TL
p2820
VCS
p2821
tp2822
I1
s(V``
p2823
VNR
p2824
tp2825
I1
s(VNR
p2826
VJJ
p2827
tp2828
I1
s(VAP
p2829
VNNS-TL
p2830
tp2831
I1
s(VWRB
p2832
VTO
p2833
tp2834
I5
s(VBE
p2835
VVBG
p2836
tp2837
I12
s(VIN
p2838
g7
tp2839
I3
s(VWDT
p2840
VCD
p2841
tp2842
I1
s(VIN-TL
p2843
VAT-TL
p2844
tp2845
I12
s(VNN
p2846
V--
p2847
tp2848
I34
s(g981
g109
tp2849
I44
s(VNN$
p2850
VJJ
p2851
tp2852
I18
s(VVBN
p2853
VNN
p2854
tp2855
I92
s(VNN
p2856
g2008
tp2857
I22
s(VVBD
p2858
V''
p2859
tp2860
I3
s(g268
V``
p2861
tp2862
I9
s(g109
g109
tp2863
I103
s(VRB
p2864
g1101
tp2865
I1
s(g2426
VJJ
p2866
tp2867
I1
s(g2197
VJJ
p2868
tp2869
I54
s(VVBN
p2870
V``
p2871
tp2872
I6
s(VNNS-TL
p2873
VVBN
p2874
tp2875
I1
s(VNPS
p2876
VAT
p2877
tp2878
I2
s(VNNS-TL
p2879
VJJ-TL
p2880
tp2881
I3
s(VRBR
p2882
VPPS
p2883
tp2884
I2
s(VBED
p2885
g268
tp2886
I2
s(VVBZ
p2887
g109
tp2888
I14
s(g1039
g823
tp2889
I15
s(VIN
p2890
VNNS-TL
p2891
tp2892
I9
s(g1153
VFW-NN-TL
p2893
tp2894
I1
s(g7
VVBN
p2895
tp2896
I40
s(VPPO
p2897
g7
tp2898
I16
s(VIN-TL
p2899
VJJ-TL
p2900
tp2901
I14
s(g1345
VJJ
p2902
tp2903
I2
s(VWDT
p2904
VPPSS+BER
p2905
tp2906
I1
s(g528
VNNS-HL
p2907
tp2908
I9
s(VPP$
p2909
VNP
p2910
tp2911
I7
s(VNN-TL
p2912
VVBZ
p2913
tp2914
I10
s(VRB
p2915
VBED
p2916
tp2917
I5
s(g7
g68
tp2918
I2
s(VRP
p2919
g268
tp2920
I1
s(V--
p2921
VNN
p2922
tp2923
I7
s(VPP$
p2924
VRB
p2925
tp2926
I2
s(VDO-HL
p2927
VNN-HL
p2928
tp2929
I1
s(VEX
p2930
VHVZ
p2931
tp2932
I6
s(VVBZ
p2933
VQL
p2934
tp2935
I2
s(VPPO
p2936
g109
tp2937
I25
s(VRBR
p2938
g7
tp2939
I9
s(g446
g2230
tp2940
I7
s(VNN-TL
p2941
VCS
p2942
tp2943
I12
s(V``
p2944
VBEG
p2945
tp2946
I1
s(g1104
VDOD
p2947
tp2948
I1
s(VVB
p2949
V''
p2950
tp2951
I20
s(VNN-TL
p2952
g109
tp2953
I148
s(VBEN
p2954
VVBG
p2955
tp2956
I22
s(VBER
p2957
VQL
p2958
tp2959
I3
s(VVB
p2960
VPN
p2961
tp2962
I2
s(VBE
p2963
VIN
p2964
tp2965
I22
s(VIN
p2966
V--
p2967
tp2968
I2
s(VRB
p2969
VNR
p2970
tp2971
I32
s(VNNS-HL
p2972
VVBD-HL
p2973
tp2974
I1
s(VJJ-HL
p2975
VIN-HL
p2976
tp2977
I1
s(VNP-TL
p2978
VJJ-TL
p2979
tp2980
I30
s(VRP
p2981
VNNS
p2982
tp2983
I5
s(VNP
p2984
VDOZ*
p2985
tp2986
I3
s(V--
p2987
VTO
p2988
tp2989
I1
s(VNNS-TL
p2990
VPP$
p2991
tp2992
I1
s(VPP$
p2993
VJJ
p2994
tp2995
I113
s(g268
g148
tp2996
I1
s(g375
g642
tp2997
I241
s(g7
VOD-TL
p2998
tp2999
I5
s(VHV
p3000
VCD
p3001
tp3002
I4
s(VCD
p3003
VBER
p3004
tp3005
I1
s(VVBZ
p3006
VAP
p3007
tp3008
I6
s(g7
VCS
p3009
tp3010
I82
s(V--
p3011
VVBD
p3012
tp3013
I4
s(VBEDZ
p3014
g2290
tp3015
I12
s(VDOD
p3016
VNN
p3017
tp3018
I1
s(VBEZ*
p3019
VAT
p3020
tp3021
I1
s(VABN
p3022
VBEDZ
p3023
tp3024
I2
s(VWPS
p3025
VAP
p3026
tp3027
I2
s(VPN$
p3028
VNN
p3029
tp3030
I1
s(VJJR
p3031
g7
tp3032
I5
s(VCD
p3033
VWDT
p3034
tp3035
I1
s(VNPS-TL
p3036
g109
tp3037
I1
s(VNNS
p3038
VRB
p3039
tp3040
I84
s(VBED
p3041
VRBR
p3042
tp3043
I1
s(VDT
p3044
V``
p3045
tp3046
I1
s(VIN-HL
p3047
g217
tp3048
I1
s(VPPLS
p3049
VJJ
p3050
tp3051
I1
s(VPP$
p3052
VNNS
p3053
tp3054
I96
s(VVBG
p3055
VMD
p3056
tp3057
I2
s(VJJ
p3058
VWPS
p3059
tp3060
I1
s(VRB
p3061
VBER
p3062
tp3063
I1
s(VBEDZ
p3064
VRP
p3065
tp3066
I6
s(VJJR
p3067
VVBG
p3068
tp3069
I2
s(V``
p3070
VMD*
p3071
tp3072
I1
s(VDTX
p3073
VBEDZ
p3074
tp3075
I1
s(V``
p3076
VPPS+BEZ
p3077
tp3078
I5
s(VBER
p3079
g7
tp3080
I1
s(VDT
p3081
VAP
p3082
tp3083
I1
s(V``
p3084
VCD
p3085
tp3086
I4
s(VFW-NN-TL
p3087
VIN-TL
p3088
tp3089
I1
s(VAT
p3090
VNR-TL
p3091
tp3092
I4
s(VNNS
p3093
g922
tp3094
I61
s(VDT
p3095
g109
tp3096
I7
s(VHVZ
p3097
VNNS
p3098
tp3099
I1
s(VJJ
p3100
VCS
p3101
tp3102
I38
s(VNN
p3103
g305
tp3104
I2
s(VPPSS
p3105
VVBG
p3106
tp3107
I1
s(VNP$
p3108
VJJ-TL
p3109
tp3110
I3
s(VCD-TL
p3111
VCD-TL
p3112
tp3113
I2
s(V--
p3114
g1294
tp3115
I14
s(VAP
p3116
VJJ
p3117
tp3118
I17
s(VNN-TL
p3119
VPPSS
p3120
tp3121
I1
s(VJJ-TL
p3122
g1926
tp3123
I2
s(VCC
p3124
g305
tp3125
I6
s(VVBG
p3126
VVBG
p3127
tp3128
I1
s(g7
VPPS
p3129
tp3130
I125
s(VNN
p3131
VDOZ
p3132
tp3133
I4
s(VAP
p3134
VVB
p3135
tp3136
I3
s(g148
V``
p3137
tp3138
I1
s(V``
p3139
VRB
p3140
tp3141
I16
s(VNN-TL
p3142
VVBD
p3143
tp3144
I60
s(VVBZ
p3145
g1825
tp3146
I2
s(VPN+HVZ
p3147
VVBN
p3148
tp3149
I1
s(VNN
p3150
g148
tp3151
I8
s(g1470
g7
tp3152
I2
s(VNNS-HL
p3153
VNR-HL
p3154
tp3155
I1
s(VCC
p3156
VRB
p3157
tp3158
I51
s(VOD
p3159
VNNS
p3160
tp3161
I8
s(VWPO
p3162
VBED
p3163
tp3164
I1
s(VNR$
p3165
VNNS
p3166
tp3167
I2
s(VNR
p3168
VBED
p3169
tp3170
I1
s(VBER
p3171
VDTI
p3172
tp3173
I2
s(VBEDZ
p3174
VVB
p3175
tp3176
I1
s(VBEZ
p3177
VPP$
p3178
tp3179
I3
s(g7
VAT-TL
p3180
tp3181
I2
s(VBE
p3182
VJJ
p3183
tp3184
I37
s(V--
p3185
V``
p3186
tp3187
I5
s(VVBG
p3188
VPPLS
p3189
tp3190
I1
s(VBEZ
p3191
VNNS
p3192
tp3193
I2
s(VPP$
p3194
VNP-TL
p3195
tp3196
I1
s(VVBZ
p3197
g268
tp3198
I3
s(VNN
p3199
VCS
p3200
tp3201
I165
s(VCC
p3202
VBEZ
p3203
tp3204
I9
s(VBEDZ
p3205
VRB
p3206
tp3207
I39
s(VVB
p3208
VTO
p3209
tp3210
I51
s(VCD-TL
p3211
g109
tp3212
I5
s(VJJ
p3213
VNPS$
p3214
tp3215
I1
s(VNP
p3216
g153
tp3217
I4
s(VNN
p3218
VNNS$
p3219
tp3220
I3
s(VVBD
p3221
g68
tp3222
I1
s(VMD
p3223
VTO
p3224
tp3225
I2
s(g2078
g7
tp3226
I1
s(g305
VQL
p3227
tp3228
I3
s(VNN
p3229
g1890
tp3230
I123
s(VVBD
p3231
g109
tp3232
I116
s(VBER
p3233
VNN
p3234
tp3235
I2
s(VCD
p3236
VVBZ
p3237
tp3238
I1
s(g1748
VDT
p3239
tp3240
I1
s(VNNS
p3241
VWPS
p3242
tp3243
I41
s(VNNS
p3244
VABN
p3245
tp3246
I4
s(VCD
p3247
VWRB
p3248
tp3249
I3
s(g2247
VNN-HL
p3250
tp3251
I4
s(VEX
p3252
VVBD
p3253
tp3254
I3
s(VWDT
p3255
VTO
p3256
tp3257
I3
s(VNNS-TL
p3258
VHVZ
p3259
tp3260
I2
s(V``
p3261
VVBG-TL
p3262
tp3263
I1
s(VNP-HL
p3264
g259
tp3265
I1
s(VVBZ
p3266
VNN
p3267
tp3268
I12
s(VCD
p3269
VBEZ
p3270
tp3271
I5
s(VJJT
p3272
V''
p3273
tp3274
I3
s(VWDT
p3275
VPP$
p3276
tp3277
I2
s(VVB-HL
p3278
VRB-HL
p3279
tp3280
I1
s(V``
p3281
VIN-TL
p3282
tp3283
I1
s(V``
p3284
VCS
p3285
tp3286
I11
s(g7
VPPSS+MD
p3287
tp3288
I1
s(g2582
VRP
p3289
tp3290
I3
s(VCS
p3291
VNP$
p3292
tp3293
I5
s(VNP
p3294
VQL
p3295
tp3296
I1
s(V''
p3297
VRB
p3298
tp3299
I1
s(VCS
p3300
g2806
tp3301
I1
s(VRBR
p3302
g550
tp3303
I1
s(VABN
p3304
VNP
p3305
tp3306
I1
s(VNP$
p3307
VJJT
p3308
tp3309
I1
s(VNN
p3310
VJJR
p3311
tp3312
I2
s(V``
p3313
VDTI
p3314
tp3315
I1
s(VABX
p3316
VAT
p3317
tp3318
I3
s(VNN
p3319
VABN
p3320
tp3321
I3
s(V''
p3322
VTO
p3323
tp3324
I1
s(VRB
p3325
V``
p3326
tp3327
I3
s(g268
VNP
p3328
tp3329
I7
s(VJJT
p3330
VJJ-TL
p3331
tp3332
I1
s(VNNS
p3333
V--
p3334
tp3335
I16
s(g1028
VNN
p3336
tp3337
I42
s(VNR
p3338
VCC
p3339
tp3340
I14
s(g7
VHVZ
p3341
tp3342
I23
s(VBEN
p3343
V``
p3344
tp3345
I1
s(VVB
p3346
VPPSS
p3347
tp3348
I8
s(VNP
p3349
g305
tp3350
I1
s(g2220
VVB
p3351
tp3352
I85
s(VAT
p3353
VNR
p3354
tp3355
I27
s(VOD-TL
p3356
VJJ-TL
p3357
tp3358
I3
s(VNP
p3359
VCC-TL
p3360
tp3361
I4
s(g3091
g7
tp3362
I1
s(V``
p3363
VVB
p3364
tp3365
I22
s(VCD
p3366
VCD
p3367
tp3368
I26
s(VTO
p3369
VWRB
p3370
tp3371
I1
s(VWPS
p3372
VHV
p3373
tp3374
I10
s(VRP
p3375
VVBG
p3376
tp3377
I1
s(VPN
p3378
g188
tp3379
I1
s(VIN
p3380
g466
tp3381
I331
s(VPP$
p3382
VNNS-TL
p3383
tp3384
I2
s(VVBG
p3385
VNR
p3386
tp3387
I6
s(g2891
VNP
p3388
tp3389
I7
s(VNNS-TL
p3390
VTO
p3391
tp3392
I3
s(VIN
p3393
VABX
p3394
tp3395
I15
s(VNNS-TL
p3396
VAP
p3397
tp3398
I1
s(VOD
p3399
VWRB
p3400
tp3401
I2
s(VJJR-HL
p3402
VNN-HL
p3403
tp3404
I1
s(VCD$
p3405
VNN
p3406
tp3407
I1
s(VVBD
p3408
VPPO
p3409
tp3410
I58
s(VNN-TL
p3411
VBEDZ
p3412
tp3413
I7
s(VAT
p3414
g2297
tp3415
I14
s(VIN
p3416
VRBR
p3417
tp3418
I1
s(g268
VPPS
p3419
tp3420
I3
s(VQL
p3421
VVB
p3422
tp3423
I1
s(VNN-HL
p3424
VJJT-HL
p3425
tp3426
I1
s(VBER
p3427
VIN
p3428
tp3429
I13
s(VBER
p3430
VRB
p3431
tp3432
I12
s(g2407
VVBD
p3433
tp3434
I1
s(VNNS$
p3435
VNN
p3436
tp3437
I20
s(VCS
p3438
VNP-TL
p3439
tp3440
I2
s(g3071
VPPSS
p3441
tp3442
I2
s(VJJ
p3443
VNR
p3444
tp3445
I7
s(VNN-TL
p3446
VNR
p3447
tp3448
I12
s(VMD
p3449
V''
p3450
tp3451
I2
s(VNN-TL
p3452
g1302
tp3453
I344
s(g961
VCS
p3454
tp3455
I1
s(g2550
VAP
p3456
tp3457
I1
s(g2313
VVBG
p3458
tp3459
I7
s(VBEDZ
p3460
VCD
p3461
tp3462
I10
s(VPP$
p3463
VJJ-TL
p3464
tp3465
I3
s(VNN
p3466
g3338
tp3467
I68
s(VBEZ
p3468
VABL
p3469
tp3470
I1
s(g1615
VQL
p3471
tp3472
I1
s(VNNS
p3473
VNPS
p3474
tp3475
I1
s(VPPO
p3476
VNN-TL
p3477
tp3478
I1
s(VPPO
p3479
VNN
p3480
tp3481
I4
s(g7
VMD*
p3482
tp3483
I1
s(VNP
p3484
VNN$
p3485
tp3486
I5
s(VNP-TL
p3487
VFW-IN
p3488
tp3489
I1
s(VCC
p3490
VNR
p3491
tp3492
I6
s(VVBG
p3493
g1189
tp3494
I1
s(VNNS
p3495
g64
tp3496
I1
s(VCS-HL
p3497
VVBN-HL
p3498
tp3499
I1
s(VVBN
p3500
VWDT
p3501
tp3502
I3
s(g7
g507
tp3503
I1
s(VCS
p3504
VVBN-TL
p3505
tp3506
I1
s(VVB-TL
p3507
V''
p3508
tp3509
I1
s(VCD
p3510
VVB
p3511
tp3512
I4
s(VNN
p3513
VNPS
p3514
tp3515
I1
s(VNN
p3516
VMD
p3517
tp3518
I166
s(g2267
VNNS
p3519
tp3520
I1
s(g603
g2303
tp3521
I12
s(VWP$
p3522
VNN
p3523
tp3524
I5
s(VNN
p3525
g1222
tp3526
I14
s(VPPS
p3527
VHVD
p3528
tp3529
I28
s(g795
VJJ
p3530
tp3531
I3
s(g305
VNN
p3532
tp3533
I2
s(VIN
p3534
VWPS
p3535
tp3536
I1
s(VJJ
p3537
VBEDZ
p3538
tp3539
I1
s(VAT
p3540
g3087
tp3541
I1
s(VIN-HL
p3542
g986
tp3543
I1
s(V''
p3544
V--
p3545
tp3546
I1
s(VOD
p3547
VJJ-TL
p3548
tp3549
I1
s(VNP-TL
p3550
VWRB
p3551
tp3552
I1
s(VMD
p3553
g305
tp3554
I26
s(VNN-TL
p3555
g2885
tp3556
I1
s(g3132
g305
tp3557
I8
s(VNN-TL
p3558
VWDT
p3559
tp3560
I2
s(VPPSS
p3561
g1466
tp3562
I19
s(g254
g2244
tp3563
I4
s(VNP
p3564
VPPS
p3565
tp3566
I3
s(VCC
p3567
VWDT
p3568
tp3569
I5
s(VVBG
p3570
VJJS
p3571
tp3572
I1
s(V--
p3573
VQL
p3574
tp3575
I2
s(VPPLS
p3576
VAT
p3577
tp3578
I1
s(VOD
p3579
VVBD
p3580
tp3581
I4
s(VPPO
p3582
VBEDZ
p3583
tp3584
I1
s(VVBN
p3585
VNN-TL
p3586
tp3587
I5
s(VNN-TL-HL
p3588
VVBZ-HL
p3589
tp3590
I2
s(V``
p3591
g1952
tp3592
I4
s(VRP
p3593
VRB
p3594
tp3595
I10
s(VNNS-TL-HL
p3596
V,-HL
p3597
tp3598
I1
s(g148
VNN
p3599
tp3600
I1
s(VBEG
p3601
VAT
p3602
tp3603
I3
s(VJJR-TL
p3604
VNN-TL
p3605
tp3606
I1
s(VJJ-TL
p3607
VNP
p3608
tp3609
I10
s(VBE
p3610
V``
p3611
tp3612
I1
s(VVBG
p3613
VJJ-TL
p3614
tp3615
I1
s(VCC
p3616
g7
tp3617
I9
s(VPPO
p3618
VDOD
p3619
tp3620
I1
s(VVBD
p3621
VMD
p3622
tp3623
I5
s(VRB
p3624
VPPSS+BER
p3625
tp3626
I1
s(VABN
p3627
VPP$
p3628
tp3629
I4
s(VVBD
p3630
VBEDZ
p3631
tp3632
I3
s(VJJ
p3633
VPP$
p3634
tp3635
I1
s(VDT
p3636
VPPS
p3637
tp3638
I1
s(VCC
p3639
VWRB
p3640
tp3641
I8
s(VOD
p3642
V``
p3643
tp3644
I1
s(VRB
p3645
g806
tp3646
I2
s(VJJ-TL
p3647
VNR-TL
p3648
tp3649
I1
s(VVBD-HL
p3650
VNN-HL
p3651
tp3652
I2
s(g3214
VOD
p3653
tp3654
I1
s(VBED
p3655
VVBN
p3656
tp3657
I59
s(VMD
p3658
g109
tp3659
I2
s(VVBZ
p3660
VABN
p3661
tp3662
I3
s(VRB
p3663
g68
tp3664
I1
s(VJJ
p3665
VNN$
p3666
tp3667
I8
s(VNN-TL
p3668
VJJ-TL
p3669
tp3670
I24
s(VWDT
p3671
VDT
p3672
tp3673
I4
s(VBEZ
p3674
g305
tp3675
I16
s(VCS
p3676
VJJ-TL
p3677
tp3678
I3
s(VVBN
p3679
g2476
tp3680
I34
s(VCD
p3681
VNN$
p3682
tp3683
I1
s(VAT
p3684
g305
tp3685
I1
s(VDT
p3686
VVBD
p3687
tp3688
I8
s(VRB
p3689
VPN
p3690
tp3691
I1
s(g1848
VVBN-HL
p3692
tp3693
I3
s(VIN
p3694
VBEG
p3695
tp3696
I4
s(g7
g305
tp3697
I6
s(VCS
p3698
VPPS+MD
p3699
tp3700
I1
s(g2446
VNN
p3701
tp3702
I1097
s(VVBN
p3703
VWRB
p3704
tp3705
I7
s(g7
g3674
tp3706
I26
s(VPPS+HVZ
p3707
VVBN
p3708
tp3709
I2
s(V``
p3710
VAP
p3711
tp3712
I3
s(VNNS-HL
p3713
g2238
tp3714
I1
s(g1991
VVBZ
p3715
tp3716
I40
s(VDTS
p3717
VVBD
p3718
tp3719
I1
s(VNPS$
p3720
VAP
p3721
tp3722
I1
s(VHVZ
p3723
VDT
p3724
tp3725
I1
s(VJJ-TL
p3726
VNNS
p3727
tp3728
I13
s(VVBD
p3729
g3576
tp3730
I3
s(VTO
p3731
VJJ
p3732
tp3733
I2
s(VJJ
p3734
VQL
p3735
tp3736
I2
s(VNN$
p3737
VNP
p3738
tp3739
I1
s(g268
VJJ
p3740
tp3741
I1
s(VDOD*
p3742
g109
tp3743
I1
s(VNP
p3744
g68
tp3745
I3
s(VVBZ-HL
p3746
VNN-HL
p3747
tp3748
I11
s(VABN
p3749
VBER
p3750
tp3751
I1
s(VVBN-TL
p3752
VJJ-TL
p3753
tp3754
I2
s(VVBD
p3755
g837
tp3756
I4
s(g992
V``
p3757
tp3758
I3
s(VBE
p3759
VNNS
p3760
tp3761
I6
s(VNN-TL
p3762
V''
p3763
tp3764
I22
s(g2695
VRB
p3765
tp3766
I3
s(VRP
p3767
VPPL
p3768
tp3769
I1
s(VPPS
p3770
VDOZ*
p3771
tp3772
I2
s(VABX
p3773
g7
tp3774
I1
s(VNNS
p3775
g193
tp3776
I6
s(VPPS+BEZ
p3777
VJJ
p3778
tp3779
I5
s(VHVD*
p3780
VBEN
p3781
tp3782
I1
s(V``
p3783
VPPSS+MD
p3784
tp3785
I6
s(VRP
p3786
VAP
p3787
tp3788
I2
s(VHV
p3789
VNP
p3790
tp3791
I2
s(VAT
p3792
g2310
tp3793
I2628
s(VDTS
p3794
g1436
tp3795
I1
s(VVBZ-HL
p3796
VRB-HL
p3797
tp3798
I2
s(VABN
p3799
VVB
p3800
tp3801
I2
s(VVBD
p3802
g1074
tp3803
I4
s(g2555
V``
p3804
tp3805
I3
s(VJJ
p3806
VVB
p3807
tp3808
I4
s(V''
p3809
g148
tp3810
I2
s(g1137
g109
tp3811
I61
s(g3747
VVBG-HL
p3812
tp3813
I1
s(VAT
p3814
VVBG-TL
p3815
tp3816
I3
s(VNN-TL
p3817
VNPS-TL
p3818
tp3819
I3
s(VRB
p3820
g142
tp3821
I1
s(VRP
p3822
VWPS
p3823
tp3824
I1
s(VJJ
p3825
VAT
p3826
tp3827
I7
s(V``
p3828
g2697
tp3829
I3
s(VNN-TL-HL
p3830
g205
tp3831
I3
s(VCD-HL
p3832
V--
p3833
tp3834
I3
s(VPPSS+MD
p3835
VVB
p3836
tp3837
I15
s(VAT
p3838
VVBG
p3839
tp3840
I81
s(VJJ-TL
p3841
VCC-TL
p3842
tp3843
I2
s(VPPO
p3844
g148
tp3845
I1
s(VBE
p3846
VNP
p3847
tp3848
I5
s(VNNS-TL
p3849
g142
tp3850
I1
s(VNNS-HL
p3851
VTO-HL
p3852
tp3853
I1
s(g7
VDT
p3854
tp3855
I19
s(VJJ
p3856
V''
p3857
tp3858
I24
s(g1273
VRP
p3859
tp3860
I1
s(VNN
p3861
VDTS
p3862
tp3863
I1
s(VPPSS
p3864
VDOD
p3865
tp3866
I4
s(VBEN
p3867
VAT
p3868
tp3869
I18
s(VVBZ-HL
p3870
VIN-HL
p3871
tp3872
I6
s(VCD
p3873
V''
p3874
tp3875
I8
s(VNN-TL
p3876
VIN-TL
p3877
tp3878
I101
s(g2469
VRB
p3879
tp3880
I1
s(VDT+BEZ
p3881
g2904
tp3882
I1
s(VWRB
p3883
VNN-TL
p3884
tp3885
I1
s(g1115
VUH-TL
p3886
tp3887
I1
s(g2893
V''
p3888
tp3889
I1
s(g1829
g2853
tp3890
I60
s(VNPS
p3891
VHVD
p3892
tp3893
I1
s(VJJ
p3894
VNPS
p3895
tp3896
I2
s(VVBG-TL
p3897
VHV
p3898
tp3899
I1
s(V--
p3900
VVBN
p3901
tp3902
I4
s(g142
VIN
p3903
tp3904
I6
s(g268
VCD
p3905
tp3906
I4
s(VPPO
p3907
VVBD
p3908
tp3909
I2
s(VNN
p3910
VAT
p3911
tp3912
I60
s(V.-HL
p3913
V.-HL
p3914
tp3915
I1
s(VNP
p3916
VRP
p3917
tp3918
I1
s(g7
VNP-TL
p3919
tp3920
I18
s(VVBD
p3921
g305
tp3922
I1
s(VNNS$-HL
p3923
VNNS-HL
p3924
tp3925
I1
s(V)-HL
p3926
V.-HL
p3927
tp3928
I1
s(VCC-TL
p3929
VJJ-TL
p3930
tp3931
I3
s(VJJ
p3932
VCD
p3933
tp3934
I21
s(VNP
p3935
g109
tp3936
I261
s(VNP-HL
p3937
VRB-HL
p3938
tp3939
I1
s(VOD
p3940
VNR
p3941
tp3942
I1
s(VWPS
p3943
g7
tp3944
I4
s(VDT
p3945
V''
p3946
tp3947
I4
s(VNNS$-TL
p3948
VJJ-TL
p3949
tp3950
I1
s(g7
VJJR
p3951
tp3952
I2
s(VWDT
p3953
g818
tp3954
I2
s(VPPSS+HV
p3955
VRB
p3956
tp3957
I2
s(VIN
p3958
V``
p3959
tp3960
I22
s(VBEZ
p3961
VJJ
p3962
tp3963
I28
s(g3551
VIN
p3964
tp3965
I2
s(VBEZ
p3966
g1855
tp3967
I2
s(VAP
p3968
VJJR
p3969
tp3970
I1
s(g1964
VABN
p3971
tp3972
I1
s(VJJ-TL
p3973
VIN
p3974
tp3975
I2
s(VVB
p3976
g645
tp3977
I12
s(VHVD
p3978
VRB
p3979
tp3980
I10
s(g7
VNN-TL
p3981
tp3982
I39
s(VJJ
p3983
VDT
p3984
tp3985
I1
s(VNN$-TL
p3986
g7
tp3987
I1
s(VNPS
p3988
VDTI
p3989
tp3990
I1
s(VVBZ
p3991
VDTI
p3992
tp3993
I1
s(VWP$
p3994
VVBN
p3995
tp3996
I1
s(V*-HL
p3997
VNN-HL
p3998
tp3999
I1
s(VNNS
p4000
VNR
p4001
tp4002
I17
s(VNPS
p4003
VVBG
p4004
tp4005
I1
s(VNN
p4006
g142
tp4007
I9
s(VCC
p4008
VDOD
p4009
tp4010
I3
s(g2693
VCD
p4011
tp4012
I1
s(VNN-HL
p4013
g3497
tp4014
I1
s(VJJ-HL
p4015
VVBG-HL
p4016
tp4017
I1
s(VRP
p4018
g7
tp4019
I14
s(VCD
p4020
VNNS$
p4021
tp4022
I3
s(g74
g7
tp4023
I371
s(g2122
VNN
p4024
tp4025
I184
s(VNN
p4026
g109
tp4027
I969
s(g7
VNN$-TL
p4028
tp4029
I1
s(VVBN
p4030
VVB
p4031
tp4032
I1
s(VWPS
p4033
g980
tp4034
I9
s(VVBD
p4035
VNNS-TL
p4036
tp4037
I1
s(g2072
VIN
p4038
tp4039
I4
s(VWPS
p4040
VMD
p4041
tp4042
I32
s(VOD
p4043
VNP
p4044
tp4045
I2
s(g7
VPP$
p4046
tp4047
I10
s(VTO
p4048
VRB
p4049
tp4050
I5
s(g7
g3108
tp4051
I8
s(VNNS-TL
p4052
VCC-TL
p4053
tp4054
I4
s(g881
VRB-HL
p4055
tp4056
I2
s(VNN-TL
p4057
VCD
p4058
tp4059
I6
s(VOD
p4060
VTO
p4061
tp4062
I3
s(VBED
p4063
VNN
p4064
tp4065
I2
s(VWDT
p4066
VMD
p4067
tp4068
I20
s(VCS
p4069
VNR
p4070
tp4071
I1
s(VPPSS
p4072
VHVD
p4073
tp4074
I14
s(VCC
p4075
VHVZ
p4076
tp4077
I6
s(VNN
p4078
g7
tp4079
I859
s(VJJT
p4080
g109
tp4081
I3
s(g458
VBEDZ
p4082
tp4083
I1
s(VHVD
p4084
VAT
p4085
tp4086
I19
s(V``
p4087
VPPO
p4088
tp4089
I2
s(VVBD
p4090
VAT
p4091
tp4092
I335
s(VCC
p4093
VBED
p4094
tp4095
I4
s(VDT
p4096
VMD*
p4097
tp4098
I1
s(VPP$
p4099
VNN
p4100
tp4101
I339
s(VVBG-HL
p4102
g3542
tp4103
I1
s(VRB
p4104
VBEZ
p4105
tp4106
I15
s(g3833
g148
tp4107
I5
s(VVB
p4108
g3707
tp4109
I1
s(g1531
g858
tp4110
I5
s(VPPSS
p4111
VDOD*
p4112
tp4113
I2
s(g3895
VVBD
p4114
tp4115
I17
s(g2151
VNN-HL
p4116
tp4117
I1
s(g3447
g109
tp4118
I67
s(g399
VNN
p4119
tp4120
I1
s(VVBD
p4121
g2093
tp4122
I14
s(VNNS
p4123
VBEZ
p4124
tp4125
I15
s(VNP-HL
p4126
VAT-HL
p4127
tp4128
I2
s(g268
VNPS
p4129
tp4130
I1
s(VAP
p4131
VAP
p4132
tp4133
I6
s(VCD
p4134
VJJS
p4135
tp4136
I1
s(V--
p4137
VPPSS
p4138
tp4139
I3
s(VABN
p4140
VAP
p4141
tp4142
I1
s(VNNS
p4143
VDTS
p4144
tp4145
I2
s(VRB
p4146
g7
tp4147
I83
s(V''
p4148
VWRB
p4149
tp4150
I1
s(VJJT
p4151
VJJ
p4152
tp4153
I5
s(VNPS
p4154
VRB
p4155
tp4156
I6
s(VHVZ
p4157
VABL
p4158
tp4159
I1
s(VIN
p4160
VABL
p4161
tp4162
I1
s(VNP-HL
p4163
VCD-HL
p4164
tp4165
I29
s(VPPSS
p4166
V``
p4167
tp4168
I4
s(VNNS-HL
p4169
VVBN-HL
p4170
tp4171
I11
s(VBEDZ
p4172
VTO
p4173
tp4174
I7
s(VJJ
p4175
g7
tp4176
I47
s(VBEDZ
p4177
VNP
p4178
tp4179
I1
s(V``
p4180
VNP-TL
p4181
tp4182
I5
s(g103
VNP
p4183
tp4184
I1
s(V``
p4185
VIN
p4186
tp4187
I24
s(VNP$
p4188
VNP-TL
p4189
tp4190
I3
s(g3383
VBER
p4191
tp4192
I3
s(VBE
p4193
VJJT
p4194
tp4195
I1
s(VOD
p4196
VNN
p4197
tp4198
I96
s(g1730
VRB
p4199
tp4200
I27
s(g464
g223
tp4201
I5
s(g68
VNN
p4202
tp4203
I1
s(VNP-TL-HL
p4204
g3796
tp4205
I1
s(g1897
g3507
tp4206
I1
s(VDT
p4207
VRB
p4208
tp4209
I1
s(VVB
p4210
VJJ
p4211
tp4212
I56
s(VCC
p4213
VAP
p4214
tp4215
I39
s(VNPS
p4216
VCS
p4217
tp4218
I2
s(VBEZ
p4219
VNN
p4220
tp4221
I19
s(VCC
p4222
VBER
p4223
tp4224
I3
s(VTO
p4225
VNN
p4226
tp4227
I1
s(VCD
p4228
VBEDZ
p4229
tp4230
I5
s(VNR
p4231
VIN
p4232
tp4233
I113
s(VPPO
p4234
VNR
p4235
tp4236
I1
s(VNP$
p4237
g3038
tp4238
I18
s(VDT
p4239
VNR
p4240
tp4241
I6
s(g1813
VNP-TL
p4242
tp4243
I1
s(VBED
p4244
g2306
tp4245
I3
s(VNNS-TL
p4246
VHVD
p4247
tp4248
I2
s(VPP$
p4249
VAP
p4250
tp4251
I9
s(VBEZ
p4252
VVBN
p4253
tp4254
I75
s(g1013
VNNS-HL
p4255
tp4256
I8
s(VWPS
p4257
VRB
p4258
tp4259
I11
s(VRB
p4260
VDT
p4261
tp4262
I11
s(VVBD
p4263
VNP
p4264
tp4265
I70
s(V--
p4266
VWDT
p4267
tp4268
I1
s(g2593
g7
tp4269
I2
s(VVBG
p4270
VNN-TL
p4271
tp4272
I5
s(VPPO
p4273
VPPS
p4274
tp4275
I3
s(VVBN
p4276
VJJR
p4277
tp4278
I1
s(VPP$
p4279
VCD
p4280
tp4281
I11
s(VVBN-TL-HL
p4282
g3596
tp4283
I1
s(VWRB
p4284
VDT
p4285
tp4286
I3
s(VDTX
p4287
VVBD
p4288
tp4289
I1
s(g2789
VPP$
p4290
tp4291
I1
s(g778
VPPSS
p4292
tp4293
I2
s(VJJT
p4294
VIN
p4295
tp4296
I3
s(V--
p4297
VCD
p4298
tp4299
I9
s(VPN-HL
p4300
VTO-HL
p4301
tp4302
I1
s(VPPO
p4303
VCC
p4304
tp4305
I9
s(VMD*-HL
p4306
VVB-HL
p4307
tp4308
I1
s(VCC
p4309
VMD*
p4310
tp4311
I1
s(VVBG
p4312
VHVZ
p4313
tp4314
I2
s(g2145
VVBG
p4315
tp4316
I39
s(VVBN
p4317
VBEDZ
p4318
tp4319
I3
s(V``
p4320
g1152
tp4321
I1
s(VVBD
p4322
VPP$
p4323
tp4324
I50
s(VCC
p4325
VNP-TL
p4326
tp4327
I15
s(g3200
VCS
p4328
tp4329
I19
s(VVBD
p4330
VJJ
p4331
tp4332
I35
s(VTO
p4333
VVB-HL
p4334
tp4335
I1
s(g3528
VVBN
p4336
tp4337
I52
s(VQL
p4338
VAP
p4339
tp4340
I18
s(VVBZ
p4341
VPPS
p4342
tp4343
I2
s(VNN-HL
p4344
VJJ-HL
p4345
tp4346
I2
s(g2519
VVBZ
p4347
tp4348
I1
s(VNP-TL
p4349
VAP
p4350
tp4351
I2
s(VWRB
p4352
VEX
p4353
tp4354
I2
s(g3865
VIN
p4355
tp4356
I4
s(g7
VAT
p4357
tp4358
I312
s(VNNS
p4359
VPPLS
p4360
tp4361
I2
s(g1031
VAT
p4362
tp4363
I14
s(VVBD
p4364
g126
tp4365
I5
s(g740
g3668
tp4366
I311
s(g292
g2445
tp4367
I30
s(VNP
p4368
VWPS
p4369
tp4370
I9
s(g531
VVB
p4371
tp4372
I644
s(g1107
VIN
p4373
tp4374
I2
s(VDO
p4375
VPN
p4376
tp4377
I2
s(VVBD
p4378
VNNS
p4379
tp4380
I56
s(V''
p4381
VBER
p4382
tp4383
I1
s(g3768
V''
p4384
tp4385
I1
s(VVBN
p4386
VRB
p4387
tp4388
I54
s(VNR-TL
p4389
VTO
p4390
tp4391
I1
s(VVBZ-HL
p4392
VTO-HL
p4393
tp4394
I1
s(VRP
p4395
VABN
p4396
tp4397
I1
s(VBEDZ
p4398
VVBN-TL
p4399
tp4400
I1
s(g1368
VBEN
p4401
tp4402
I28
s(VVBD
p4403
VOD
p4404
tp4405
I3
s(VDT
p4406
g7
tp4407
I7
s(VVB
p4408
VJJ-TL
p4409
tp4410
I2
s(VJJ-HL
p4411
VDT-HL
p4412
tp4413
I1
s(VVBZ
p4414
VNP
p4415
tp4416
I16
s(VNP
p4417
VFW-IN-TL
p4418
tp4419
I1
s(VABX
p4420
VVBG
p4421
tp4422
I1
s(VNP
p4423
VBED
p4424
tp4425
I3
s(VCC
p4426
g4287
tp4427
I1
s(VBEN
p4428
VNNS
p4429
tp4430
I1
s(VCS
p4431
VVBN
p4432
tp4433
I9
s(VNPS
p4434
VPPS
p4435
tp4436
I1
s(g3077
g68
tp4437
I1
s(VIN
p4438
VNP$-TL
p4439
tp4440
I1
s(VWDT
p4441
VPPSS
p4442
tp4443
I8
s(VAP-HL
p4444
g2315
tp4445
I2
s(VABN
p4446
VNNS
p4447
tp4448
I22
s(VIN-TL
p4449
VNP
p4450
tp4451
I9
s(VVBG
p4452
g142
tp4453
I2
s(g2276
VAT
p4454
tp4455
I1
s(VABN
p4456
VPPSS
p4457
tp4458
I1
s(g2075
VNNS
p4459
tp4460
I81
s(VDT
p4461
g175
tp4462
I1
s(VNNS
p4463
g2178
tp4464
I2
s(VAT
p4465
g4196
tp4466
I123
s(VNR
p4467
VVBN
p4468
tp4469
I1
s(g268
VNNS
p4470
tp4471
I1
s(VNPS
p4472
VNR
p4473
tp4474
I4
s(VVBN-HL
p4475
VNN-HL
p4476
tp4477
I2
s(VPPSS
p4478
g1331
tp4479
I1
s(VAT
p4480
g1334
tp4481
I6
s(VJJ-TL
p4482
VNP$
p4483
tp4484
I1
s(VBEZ
p4485
VIN
p4486
tp4487
I16
s(VPPO
p4488
VCS
p4489
tp4490
I12
s(g148
g4452
tp4491
I1
s(g148
VNN-TL
p4492
tp4493
I1
s(VWPS
p4494
VDOZ*
p4495
tp4496
I1
s(VVBD
p4497
VWDT
p4498
tp4499
I3
s(VMD
p4500
VAT
p4501
tp4502
I1
s(VCC
p4503
VNN-TL
p4504
tp4505
I27
s(g824
VJJ
p4506
tp4507
I97
s(VIN
p4508
g262
tp4509
I6
s(VHVN
p4510
VNNS
p4511
tp4512
I1
s(g1291
g305
tp4513
I14
s(VDTI
p4514
g211
tp4515
I18
s(VNNS-TL
p4516
VNNS
p4517
tp4518
I2
s(VBEDZ
p4519
VCS
p4520
tp4521
I3
s(VBEZ
p4522
VQL
p4523
tp4524
I8
s(VVBG
p4525
VJJR
p4526
tp4527
I4
s(g2545
VJJ
p4528
tp4529
I1
s(VVBZ
p4530
VCC
p4531
tp4532
I2
s(VPPO
p4533
VRB
p4534
tp4535
I12
s(VVBZ
p4536
VIN
p4537
tp4538
I51
s(VCS
p4539
g13
tp4540
I4
s(g305
VBEN
p4541
tp4542
I4
s(g1649
g1756
tp4543
I1
s(g4112
VVB
p4544
tp4545
I5
s(VDT
p4546
VJJ
p4547
tp4548
I24
s(VPPSS
p4549
VBEM
p4550
tp4551
I7
s(VNR
p4552
V``
p4553
tp4554
I1
s(VNNS-TL
p4555
VCS
p4556
tp4557
I3
s(VRB
p4558
VPPO
p4559
tp4560
I1
s(VVBZ-HL
p4561
VJJ-HL
p4562
tp4563
I1
s(VNR$
p4564
VCD
p4565
tp4566
I4
s(VBED
p4567
VRB
p4568
tp4569
I13
s(VBEZ
p4570
g109
tp4571
I3
s(V--
p4572
VJJ-TL
p4573
tp4574
I2
s(VDTS
p4575
VJJ
p4576
tp4577
I4
s(VVB
p4578
VRP
p4579
tp4580
I66
s(VVBG
p4581
g2266
tp4582
I2
s(VDO
p4583
V''
p4584
tp4585
I1
s(g1894
VBER
p4586
tp4587
I4
s(VAT
p4588
g493
tp4589
I1
s(g1112
g109
tp4590
I1
s(VPPSS
p4591
g1480
tp4592
I12
s(g7
VNN$
p4593
tp4594
I2
s(VFW-IN
p4595
VFW-NN
p4596
tp4597
I3
s(VVBD
p4598
g7
tp4599
I99
s(VBE
p4600
VCD
p4601
tp4602
I1
s(VQLP
p4603
g109
tp4604
I1
s(VDT
p4605
VVBG
p4606
tp4607
I4
s(VNR
p4608
VPPS
p4609
tp4610
I6
s(VNPS$
p4611
VNN
p4612
tp4613
I8
s(VWDT
p4614
VBED
p4615
tp4616
I1
s(V``
p4617
g2595
tp4618
I34
s(VVBZ-HL
p4619
VNNS-HL
p4620
tp4621
I4
s(VHVG
p4622
VVBN
p4623
tp4624
I1
s(g159
V''
p4625
tp4626
I5
s(VVBD
p4627
VVBG
p4628
tp4629
I16
s(VNNS-TL
p4630
VBEDZ
p4631
tp4632
I2
s(VPPO
p4633
VRP
p4634
tp4635
I10
s(VBED
p4636
VQL
p4637
tp4638
I1
s(g305
VABN
p4639
tp4640
I1
s(g7
VBE
p4641
tp4642
I1
s(g833
VCD
p4643
tp4644
I1
s(g3625
g305
tp4645
I1
s(VNNS
p4646
VPPS
p4647
tp4648
I9
s(g239
VNN-TL
p4649
tp4650
I1
s(VVB
p4651
VABL
p4652
tp4653
I4
s(VCS
p4654
VMD
p4655
tp4656
I1
s(g3140
VAT
p4657
tp4658
I65
s(VWDT
p4659
g759
tp4660
I4
s(VJJ
p4661
VWDT
p4662
tp4663
I1
s(VBER
p4664
VPP$
p4665
tp4666
I2
s(VCC
p4667
VHV
p4668
tp4669
I3
s(VPN
p4670
VJJ
p4671
tp4672
I1
s(VVB
p4673
g2074
tp4674
I51
s(g4094
g1974
tp4675
I1
s(g470
g305
tp4676
I5
s(VWDT
p4677
VVBG
p4678
tp4679
I1
s(VNN$-TL
p4680
VNP
p4681
tp4682
I1
s(VNR
p4683
VWRB
p4684
tp4685
I4
s(VBEDZ
p4686
VQL
p4687
tp4688
I10
s(VPP$
p4689
VNN-TL
p4690
tp4691
I3
s(g7
g2887
tp4692
I33
s(V``
p4693
VUH
p4694
tp4695
I1
s(VRB
p4696
g3322
tp4697
I16
s(g7
g4659
tp4698
I44
s(g958
g7
tp4699
I146
s(VDT
p4700
VJJS
p4701
tp4702
I2
s(VWRB
p4703
VOD-TL
p4704
tp4705
I1
s(g670
VAP
p4706
tp4707
I23
s(VNNS
p4708
VWRB
p4709
tp4710
I11
s(VIN
p4711
VNP
p4712
tp4713
I743
s(VNP-HL
p4714
VNP-HL
p4715
tp4716
I13
s(VNP-TL
p4717
VOD-TL
p4718
tp4719
I1
s(VDTS
p4720
g7
tp4721
I1
s(VNP-TL
p4722
VNP-TL
p4723
tp4724
I30
s(g2163
VRP
p4725
tp4726
I2
s(V``
p4727
VNP
p4728
tp4729
I19
s(VFW-DT
p4730
VNN
p4731
tp4732
I1
s(g1528
VJJ-TL
p4733
tp4734
I7
s(VNNS-TL
p4735
VMD
p4736
tp4737
I6
s(g410
VTO
p4738
tp4739
I5
s(g4371
VNNS
p4740
tp4741
I81
s(g1953
VPPO
p4742
tp4743
I1
s(VIN-HL
p4744
VJJT-HL
p4745
tp4746
I1
s(VJJ
p4747
VVBN-TL
p4748
tp4749
I4
s(VDOD
p4750
g7
tp4751
I2
s(VAT-HL
p4752
VNNS-HL
p4753
tp4754
I2
s(VJJ
p4755
VJJ-TL
p4756
tp4757
I22
s(VCC
p4758
g3522
tp4759
I1
s(V--
p4760
VIN
p4761
tp4762
I11
s(VBEDZ
p4763
g7
tp4764
I2
s(VNN
p4765
g3019
tp4766
I1
s(VWDT
p4767
VHVZ
p4768
tp4769
I6
s(VVBD
p4770
VCC
p4771
tp4772
I12
s(VAT
p4773
g3031
tp4774
I27
s(VWDT
p4775
g7
tp4776
I3
s(g2404
VHV
p4777
tp4778
I28
s(VOD-TL
p4779
g142
tp4780
I1
s(VVBZ
p4781
VCD
p4782
tp4783
I1
s(VBE
p4784
VAP
p4785
tp4786
I3
s(g268
g68
tp4787
I1
s(g305
VBE
p4788
tp4789
I12
s(g317
VRB
p4790
tp4791
I7
s(VCD
p4792
VNN-TL
p4793
tp4794
I9
s(VIN
p4795
g539
tp4796
I2
s(VJJR
p4797
VCS
p4798
tp4799
I5
s(g2868
VJJ
p4800
tp4801
I123
s(g156
VNN
p4802
tp4803
I49
s(VIN-TL
p4804
g3897
tp4805
I1
s(g4418
VNP
p4806
tp4807
I1
s(VAT
p4808
g2403
tp4809
I58
s(VNNS-TL
p4810
V``
p4811
tp4812
I1
s(VCD
p4813
VTO
p4814
tp4815
I5
s(VJJ-TL
p4816
VBEDZ
p4817
tp4818
I3
s(VVBZ
p4819
g1319
tp4820
I1
s(VNN-TL
p4821
VNPS
p4822
tp4823
I3
s(VIN
p4824
VWRB
p4825
tp4826
I4
s(g2377
VRB
p4827
tp4828
I2
s(VIN
p4829
VBEZ
p4830
tp4831
I1
s(g2605
g765
tp4832
I13
s(VPP$
p4833
VNR
p4834
tp4835
I6
s(VNN
p4836
VJJ-TL
p4837
tp4838
I8
s(VAP
p4839
VJJT
p4840
tp4841
I1
s(VNP-TL
p4842
VCC
p4843
tp4844
I4
s(VIN
p4845
g3604
tp4846
I1
s(g68
g3997
tp4847
I1
s(g7
VCD-TL
p4848
tp4849
I18
s(g68
VVBN
p4850
tp4851
I2
s(VCS
p4852
VPPO
p4853
tp4854
I1
s(VAP
p4855
VVBN
p4856
tp4857
I1
s(VQL
p4858
VRP
p4859
tp4860
I2
s(VBEDZ
p4861
VPP$
p4862
tp4863
I1
s(VDT
p4864
VHVZ
p4865
tp4866
I2
s(VDTI
p4867
VAP
p4868
tp4869
I9
s(VNN$-TL
p4870
VVBN
p4871
tp4872
I2
s(VNN
p4873
VNP$
p4874
tp4875
I1
s(VNNS
p4876
VBEN
p4877
tp4878
I1
s(VPPS+BEZ
p4879
VIN
p4880
tp4881
I1
s(VOD
p4882
VNN$
p4883
tp4884
I1
s(g7
g4525
tp4885
I74
s(g3157
g3856
tp4886
I36
s(g142
VAT
p4887
tp4888
I1
s(VBE
p4889
VDT
p4890
tp4891
I1
s(g148
VVBG-TL
p4892
tp4893
I1
s(VRP
p4894
VJJ
p4895
tp4896
I3
s(VNNS
p4897
VNN-TL
p4898
tp4899
I1
s(V--
p4900
VDT
p4901
tp4902
I3
s(VVBN
p4903
VMD
p4904
tp4905
I2
s(VNN-TL
p4906
VNP-TL
p4907
tp4908
I16
s(VRB
p4909
VNP
p4910
tp4911
I15
s(VRBR
p4912
VCS
p4913
tp4914
I4
s(VRB
p4915
VTO
p4916
tp4917
I15
s(VRB
p4918
VWPS
p4919
tp4920
I1
s(VHV
p4921
VNN
p4922
tp4923
I4
s(g4412
VNN-HL
p4924
tp4925
I1
s(VJJ
p4926
VVBG
p4927
tp4928
I24
s(g4396
VDT
p4929
tp4930
I2
s(g4167
VHV
p4931
tp4932
I1
s(g142
V''
p4933
tp4934
I1
s(VDOZ
p4935
VPP$
p4936
tp4937
I1
s(g305
VVBN
p4938
tp4939
I17
s(VBEZ
p4940
VAP
p4941
tp4942
I5
s(VNN-TL
p4943
VVB
p4944
tp4945
I1
s(VNP
p4946
g4325
tp4947
I200
s(VVB
p4948
VAT
p4949
tp4950
I371
s(VNNS
p4951
g148
tp4952
I4
s(VABX
p4953
VBED
p4954
tp4955
I2
s(V``
p4956
g1114
tp4957
I7
s(VABX
p4958
VNP
p4959
tp4960
I1
s(VHVD
p4961
VBEDZ
p4962
tp4963
I1
s(VNNS$-TL
p4964
VCD
p4965
tp4966
I1
s(VAP
p4967
VJJ-TL
p4968
tp4969
I8
s(VAP-HL
p4970
VNNS-HL
p4971
tp4972
I1
s(V``
p4973
g3671
tp4974
I1
s(g1915
g374
tp4975
I406
s(VJJ
p4976
VNP$
p4977
tp4978
I1
s(VIN
p4979
g424
tp4980
I1
s(V''
p4981
VBED
p4982
tp4983
I1
s(VFW-NN
p4984
VIN
p4985
tp4986
I1
s(VCD
p4987
g2087
tp4988
I1
s(VDT+BEZ
p4989
VCS
p4990
tp4991
I1
s(VNR
p4992
VPPSS
p4993
tp4994
I1
s(VVBG
p4995
VNP$
p4996
tp4997
I3
s(g7
g545
tp4998
I116
s(VNP
p4999
g657
tp5000
I92
s(g4523
VRB
p5001
tp5002
I64
s(VNN
p5003
VDTI
p5004
tp5005
I4
s(g2051
g142
tp5006
I6
s(g4404
VCS
p5007
tp5008
I1
s(VNN-TL
p5009
VIN
p5010
tp5011
I106
s(VVBG
p5012
VNP-TL
p5013
tp5014
I3
s(VJJ
p5015
VNP-TL
p5016
tp5017
I6
s(VMD
p5018
V``
p5019
tp5020
I2
s(VVBG
p5021
VPP$
p5022
tp5023
I26
s(VNNS$-TL
p5024
VNP-TL
p5025
tp5026
I2
s(VNN
p5027
VNNS-TL
p5028
tp5029
I1
s(V``
p5030
g1266
tp5031
I1
s(VCS
p5032
VABL
p5033
tp5034
I1
s(VVBZ-HL
p5035
g169
tp5036
I1
s(VPN
p5037
VRB
p5038
tp5039
I2
s(VVBN
p5040
VAP
p5041
tp5042
I9
s(VRB
p5043
VCC
p5044
tp5045
I25
s(VIN-TL
p5046
VNP$
p5047
tp5048
I1
s(VNNS-HL
p5049
g2927
tp5050
I1
s(VHV
p5051
g4670
tp5052
I2
s(VCD
p5053
VHV
p5054
tp5055
I1
s(V--
p5056
VNP
p5057
tp5058
I18
s(VNPS
p5059
g109
tp5060
I11
s(VPPS+BEZ
p5061
VVBN
p5062
tp5063
I1
s(VRB
p5064
g4603
tp5065
I1
s(g1978
VVBG
p5066
tp5067
I1
s(g7
VCC
p5068
tp5069
I276
s(VAT
p5070
VNNS-TL
p5071
tp5072
I60
s(g4777
VTO
p5073
tp5074
I12
s(VRP
p5075
VWDT
p5076
tp5077
I1
s(g2916
VIN
p5078
tp5079
I11
s(VOD
p5080
g7
tp5081
I8
s(VBEG
p5082
VJJ
p5083
tp5084
I1
s(VNN-TL
p5085
VWPS
p5086
tp5087
I2
s(VBEDZ
p5088
VWRB
p5089
tp5090
I2
s(VNPS$
p5091
VJJT
p5092
tp5093
I1
s(VIN
p5094
g3028
tp5095
I1
s(g148
VRB
p5096
tp5097
I2
s(VBED
p5098
VNP
p5099
tp5100
I9
s(g1473
VAT
p5101
tp5102
I1
s(VVBN
p5103
VQL
p5104
tp5105
I9
s(VNNS-HL
p5106
VJJ-HL
p5107
tp5108
I2
s(VAT
p5109
g4595
tp5110
I1
s(V``
p5111
VMD-HL
p5112
tp5113
I1
s(VPP$
p5114
VNNS$
p5115
tp5116
I1
s(VNPS
p5117
g7
tp5118
I20
s(V``
p5119
VVBD
p5120
tp5121
I3
s(VJJ
p5122
VDTI
p5123
tp5124
I1
s(VVBG
p5125
g1046
tp5126
I2
s(VWPS+BEZ
p5127
VVBN
p5128
tp5129
I2
s(VIN
p5130
VVB
p5131
tp5132
I1
s(VNP
p5133
VVBG
p5134
tp5135
I12
s(g1481
VVBN
p5136
tp5137
I2
s(VPPS+BEZ
p5138
VVBG
p5139
tp5140
I3
s(VCS
p5141
g7
tp5142
I5
s(VJJ
p5143
VNNS-TL
p5144
tp5145
I4
s(VNP-TL
p5146
g5024
tp5147
I2
s(V--
p5148
g305
tp5149
I1
s(g3871
VNN-HL
p5150
tp5151
I18
s(g4655
VNP
p5152
tp5153
I1
s(VRB
p5154
VDTI
p5155
tp5156
I4
s(g3701
VVBD
p5157
tp5158
I259
s(VCC
p5159
g4673
tp5160
I57
s(VIN
p5161
g2604
tp5162
I305
s(g1484
VVB
p5163
tp5164
I2
s(g3886
V''
p5165
tp5166
I1
s(g7
VNN
p5167
tp5168
I166
s(VPPO
p5169
VWRB
p5170
tp5171
I4
s(VNP
p5172
g7
tp5173
I925
s(VDTS
p5174
VBER
p5175
tp5176
I1
s(VCD-HL
p5177
VVB-HL
p5178
tp5179
I2
s(VNPS
p5180
VDO*
p5181
tp5182
I1
s(VNN-HL
p5183
V.-HL
p5184
tp5185
I1
s(VVBZ
p5186
VNNS
p5187
tp5188
I8
s(VIN
p5189
g294
tp5190
I45
s(VNN
p5191
g1087
tp5192
I121
s(VNN
p5193
VHV
p5194
tp5195
I8
s(VWPS
p5196
VDOD
p5197
tp5198
I1
s(g1742
VCD
p5199
tp5200
I1
s(V``
p5201
VNNS$
p5202
tp5203
I1
s(VNP-TL
p5204
g109
tp5205
I25
s(g7
VRP
p5206
tp5207
I10
s(VIN
p5208
VCC
p5209
tp5210
I6
s(VCD
p5211
VNNS-TL
p5212
tp5213
I5
s(g626
VNR
p5214
tp5215
I12
s(VOD
p5216
VCD
p5217
tp5218
I13
s(VAP
p5219
VTO
p5220
tp5221
I3
s(VWDT
p5222
VPPS
p5223
tp5224
I18
s(g5044
VCS
p5225
tp5226
I29
s(VBEZ-HL
p5227
VJJ-HL
p5228
tp5229
I2
s(g7
VABX
p5230
tp5231
I11
s(VVBN-HL
p5232
g2742
tp5233
I7
s(g1050
VJJ-TL
p5234
tp5235
I2
s(g3530
VPPSS
p5236
tp5237
I2
s(VCS
p5238
g2757
tp5239
I6
s(g1300
VMD*
p5240
tp5241
I3
s(V``
p5242
VVBZ
p5243
tp5244
I2
s(g1967
VAT
p5245
tp5246
I10
s(VNNS-HL
p5247
g404
tp5248
I1
s(VWRB
p5249
VQL
p5250
tp5251
I1
s(VNN
p5252
g1210
tp5253
I402
s(g32
g2714
tp5254
I458
s(VNNS-TL
p5255
VRB
p5256
tp5257
I2
s(VNN-TL
p5258
VNNS-TL
p5259
tp5260
I29
s(VVB
p5261
VNN-TL
p5262
tp5263
I9
s(VNP$
p5264
VNP
p5265
tp5266
I7
s(VNN$-TL
p5267
VJJS
p5268
tp5269
I1
s(VHV
p5270
VJJ
p5271
tp5272
I1
s(VAT
p5273
g1364
tp5274
I259
s(g574
VTO
p5275
tp5276
I4
s(g148
VWDT
p5277
tp5278
I1
s(VNP$
p5279
VCD
p5280
tp5281
I7
s(VJJ
p5282
g3789
tp5283
I1
s(VAT-TL
p5284
VNNS-TL
p5285
tp5286
I4
s(VBEDZ
p5287
VJJR
p5288
tp5289
I1
s(g2342
VVBD
p5290
tp5291
I8
s(VAP
p5292
VRB
p5293
tp5294
I1
s(VNN
p5295
g2365
tp5296
I1
s(g68
VRB
p5297
tp5298
I1
s(VWRB
p5299
VJJ
p5300
tp5301
I4
s(VCC
p5302
VBEZ*
p5303
tp5304
I1
s(VWDT
p5305
VNP
p5306
tp5307
I10
s(g3285
g2393
tp5308
I2
s(VIN
p5309
g232
tp5310
I55
s(VCS
p5311
g109
tp5312
I1
s(VJJ
p5313
g142
tp5314
I1
s(VHVZ
p5315
VIN
p5316
tp5317
I1
s(VBEDZ
p5318
VNNS
p5319
tp5320
I1
s(g2069
g2978
tp5321
I119
s(VNN-TL
p5322
VCC-TL
p5323
tp5324
I11
s(V--
p5325
VPPSS+BER
p5326
tp5327
I1
s(VRBR
p5328
VPPSS
p5329
tp5330
I2
s(g3458
g67
tp5331
I12
s(VNNS
p5332
g109
tp5333
I383
s(VCD
p5334
VQL
p5335
tp5336
I2
s(VPPSS+BEM
p5337
VJJ
p5338
tp5339
I1
s(VPPLS
p5340
g7
tp5341
I1
s(g537
g4485
tp5342
I2
s(VVBN
p5343
VPPO
p5344
tp5345
I10
s(g7
VIN
p5346
tp5347
I277
s(VJJ-TL
p5348
VNP-TL
p5349
tp5350
I114
s(VRB
p5351
g1853
tp5352
I9
s(VPPSS
p5353
VBEDZ
p5354
tp5355
I5
s(g4387
g109
tp5356
I68
s(VVBZ-HL
p5357
VOD-HL
p5358
tp5359
I1
s(VHVD
p5360
VTO
p5361
tp5362
I2
s(VPPSS
p5363
VMD
p5364
tp5365
I62
s(VNP
p5366
VBE
p5367
tp5368
I1
s(g3267
g4999
tp5369
I67
s(g3911
VNN$
p5370
tp5371
I109
s(VBEZ
p5372
VABN
p5373
tp5374
I1
s(g690
VCS
p5375
tp5376
I8
s(VVBZ
p5377
VPPS+BEZ
p5378
tp5379
I1
s(VPPO
p5380
VBED
p5381
tp5382
I2
s(VNR
p5383
VCS
p5384
tp5385
I12
s(VVB
p5386
VNP$
p5387
tp5388
I2
s(g1121
VNNS
p5389
tp5390
I362
s(g594
VNNS-TL
p5391
tp5392
I1
s(VIN-TL
p5393
g4630
tp5394
I10
s(VNN$
p5395
VCD
p5396
tp5397
I5
s(VNNS-TL
p5398
g109
tp5399
I27
s(VNN-TL
p5400
VRB
p5401
tp5402
I13
s(VNP-TL
p5403
VNNS-TL
p5404
tp5405
I30
s(g3189
VCC
p5406
tp5407
I3
s(VBEZ
p5408
g2039
tp5409
I1
s(VHVD
p5410
VCD
p5411
tp5412
I3
s(g2027
g371
tp5413
I56
s(VIN
p5414
VJJ-TL
p5415
tp5416
I88
s(g212
g4026
tp5417
I48
s(VABN
p5418
VDTS
p5419
tp5420
I2
s(g1374
VNNS
p5421
tp5422
I9
s(VBER
p5423
VBEG
p5424
tp5425
I4
s(g2331
V,-HL
p5426
tp5427
I1
s(VRP
p5428
VCS
p5429
tp5430
I10
s(VIN
p5431
g68
tp5432
I2
s(VJJ
p5433
VMD
p5434
tp5435
I1
s(g2529
VIN
p5436
tp5437
I1
s(g5112
VVB-HL
p5438
tp5439
I3
s(VNR
p5440
g268
tp5441
I3
s(VAT
p5442
VJJ
p5443
tp5444
I876
s(VNN
p5445
g2181
tp5446
I5
s(VVBG
p5447
VNPS
p5448
tp5449
I2
s(VVBZ
p5450
VDT
p5451
tp5452
I4
s(g2553
VVBN
p5453
tp5454
I1
s(VDO
p5455
VCC
p5456
tp5457
I3
s(VBER
p5458
VHVG
p5459
tp5460
I1
s(g2217
VAT
p5461
tp5462
I70
s(VNN
p5463
VPPS
p5464
tp5465
I24
s(g4706
VNN
p5466
tp5467
I186
s(VVBG
p5468
g109
tp5469
I13
s(VFW-AT-HL
p5470
VNP-TL
p5471
tp5472
I1
s(VNN
p5473
g1694
tp5474
I2
s(VNN-TL
p5475
VTO
p5476
tp5477
I10
s(VNP
p5478
VRB
p5479
tp5480
I34
s(VHVZ
p5481
g305
tp5482
I13
s(V``
p5483
VPP$
p5484
tp5485
I7
s(VBE
p5486
g305
tp5487
I1
s(g7
VDTI
p5488
tp5489
I3
s(VNNS-TL
p5490
V--
p5491
tp5492
I1
s(VPPSS
p5493
V''
p5494
tp5495
I1
s(g2537
g172
tp5496
I1
s(g4495
VRB
p5497
tp5498
I2
s(g3571
VNNS
p5499
tp5500
I6
s(g268
VCS
p5501
tp5502
I1
s(VVB
p5503
VVBN
p5504
tp5505
I2
s(VHV
p5506
VAP
p5507
tp5508
I1
s(VVB
p5509
VDTI
p5510
tp5511
I12
s(VTO
p5512
V''
p5513
tp5514
I1
s(VHVZ
p5515
VPN
p5516
tp5517
I2
s(VCC
p5518
g4867
tp5519
I7
s(g2412
VMD
p5520
tp5521
I13
s(g970
VNP-HL
p5522
tp5523
I54
s(VIN
p5524
g305
tp5525
I2
s(VDTI
p5526
VOD
p5527
tp5528
I1
s(V``
p5529
VHVD
p5530
tp5531
I1
s(g1303
g530
tp5532
I1870
s(VVB-HL
p5533
VRP-HL
p5534
tp5535
I1
s(VNR
p5536
VPP$
p5537
tp5538
I2
s(VCC
p5539
g68
tp5540
I1
s(VIN
p5541
VDTS
p5542
tp5543
I35
s(VAP
p5544
VBEZ
p5545
tp5546
I1
s(VNN$
p5547
g7
tp5548
I1
s(g5510
VNN
p5549
tp5550
I39
s(VNP$
p5551
g1055
tp5552
I2
s(g5358
VNN-HL
p5553
tp5554
I1
s(VNP-TL
p5555
VRB
p5556
tp5557
I1
s(VNNS$-TL
p5558
VJJR
p5559
tp5560
I1
s(g2844
VJJ-TL
p5561
tp5562
I1
s(VHV
p5563
VQL
p5564
tp5565
I1
s(VVB
p5566
VVBG
p5567
tp5568
I15
s(VDOD*
p5569
VHV
p5570
tp5571
I1
s(VPPO
p5572
VCD
p5573
tp5574
I2
s(VPPO
p5575
VMD
p5576
tp5577
I3
s(VIN
p5578
VNNS$
p5579
tp5580
I1
s(g7
VPN
p5581
tp5582
I1
s(VNN-TL
p5583
g2359
tp5584
I2
s(VJJR
p5585
VJJ
p5586
tp5587
I5
s(VVB-HL
p5588
g68
tp5589
I2
s(VVBN
p5590
VNP
p5591
tp5592
I14
s(VVBN
p5593
VPPSS
p5594
tp5595
I2
s(VJJ
p5596
VTO
p5597
tp5598
I55
s(VNP-TL
p5599
VVB
p5600
tp5601
I1
s(VBEZ
p5602
g199
tp5603
I2
s(VAT
p5604
VJJS-TL
p5605
tp5606
I1
s(VVBN
p5607
V--
p5608
tp5609
I2
s(g5346
g800
tp5610
I64
s(g2766
g7
tp5611
I1
s(g5290
g31
tp5612
I229
s(g4267
VDOZ
p5613
tp5614
I1
s(g1150
g7
tp5615
I7
s(g7
VBED
p5616
tp5617
I10
s(VPPSS
p5618
g3749
tp5619
I1
s(VNN$
p5620
VQL
p5621
tp5622
I4
s(VWRB
p5623
VJJ-TL
p5624
tp5625
I1
s(g7
VNP
p5626
tp5627
I567
s(VRB
p5628
g268
tp5629
I1
s(VPPS
p5630
g2284
tp5631
I2
s(g2030
g142
tp5632
I1
s(VVBN-TL
p5633
VIN
p5634
tp5635
I1
s(g5613
g3510
tp5636
I1
s(g4339
VCS
p5637
tp5638
I19
s(VQL
p5639
VIN
p5640
tp5641
I9
s(g2651
VIN
p5642
tp5643
I75
s(VIN
p5644
VPP$$
p5645
tp5646
I1
s(VDTX
p5647
VIN
p5648
tp5649
I1
s(VDO
p5650
VAT
p5651
tp5652
I6
s(g305
VAP
p5653
tp5654
I4
s(VNN
p5655
g2118
tp5656
I2
s(VNNS-HL
p5657
V:-HL
p5658
tp5659
I3
s(g7
g1347
tp5660
I93
s(VVB-HL
p5661
g2754
tp5662
I1
s(g893
VNN
p5663
tp5664
I2
s(VNP
p5665
VAT
p5666
tp5667
I10
s(VNN
p5668
VAP
p5669
tp5670
I31
s(VPN
p5671
V''
p5672
tp5673
I1
s(g4768
VBEN
p5674
tp5675
I65
s(g148
g148
tp5676
I1
s(VNNS$-TL
p5677
VNN-TL
p5678
tp5679
I3
s(VCD-HL
p5680
VVBN-HL
p5681
tp5682
I1
s(VCC
p5683
VPPSS+BEM
p5684
tp5685
I1
s(VPPS
p5686
VBEDZ
p5687
tp5688
I100
s(g4550
g305
tp5689
I2
s(VPPSS
p5690
g148
tp5691
I2
s(g2802
VVBN-HL
p5692
tp5693
I1
s(VVB
p5694
VCC
p5695
tp5696
I16
s(VNP
p5697
V''
p5698
tp5699
I18
s(g7
VABL
p5700
tp5701
I1
s(VJJ
p5702
g762
tp5703
I2
s(VNPS
p5704
VAP
p5705
tp5706
I2
s(g3648
VCC
p5707
tp5708
I2
s(g4738
g2191
tp5709
I14
s(VVBG
p5710
g745
tp5711
I1
s(VCD
p5712
VBED
p5713
tp5714
I8
s(g4088
VNP
p5715
tp5716
I2
s(VWRB
p5717
g4500
tp5718
I1
s(VVBD
p5719
VDTI
p5720
tp5721
I7
s(VMD*
p5722
VDO
p5723
tp5724
I1
s(VHVD
p5725
VDTI
p5726
tp5727
I1
s(VHVZ
p5728
VCD
p5729
tp5730
I3
s(VAT
p5731
VJJ-TL
p5732
tp5733
I129
s(VNN$
p5734
VNR
p5735
tp5736
I1
s(VVBZ
p5737
V``
p5738
tp5739
I3
s(g68
VIN
p5740
tp5741
I2
s(g5479
VMD
p5742
tp5743
I25
s(g5349
VVBD
p5744
tp5745
I2
s(VNNS
p5746
VRP
p5747
tp5748
I8
s(VCC
p5749
VAT-TL
p5750
tp5751
I1
s(g68
g5539
tp5752
I1
s(g2566
VNN-HL
p5753
tp5754
I3
s(VDTI
p5755
VNP
p5756
tp5757
I1
s(VNN-TL
p5758
VMD
p5759
tp5760
I22
s(VAT
p5761
g1337
tp5762
I12
s(V``
p5763
g602
tp5764
I14
s(g1689
g3047
tp5765
I2
s(VVB
p5766
VNN
p5767
tp5768
I75
s(VRB
p5769
VRBR
p5770
tp5771
I1
s(VWDT
p5772
VDTI
p5773
tp5774
I1
s(g2847
VAT
p5775
tp5776
I32
s(VJJ
p5777
VABN
p5778
tp5779
I1
s(VPPS
p5780
VDOD*
p5781
tp5782
I4
s(VNNS
p5783
VBED
p5784
tp5785
I60
s(g3669
g3142
tp5786
I189
s(VNNS
p5787
VNN
p5788
tp5789
I76
s(VPPO
p5790
VVB
p5791
tp5792
I2
s(VVBN
p5793
VVBN
p5794
tp5795
I5
s(VJJ-TL
p5796
VNN$
p5797
tp5798
I1
s(VVB
p5799
VNN$
p5800
tp5801
I1
s(VWRB
p5802
VPPSS
p5803
tp5804
I14
s(g4586
g1382
tp5805
I31
s(VVBG
p5806
g7
tp5807
I19
s(VHVD
p5808
VPN
p5809
tp5810
I1
s(g4568
VNN
p5811
tp5812
I16
s(g4323
VNN$
p5813
tp5814
I9
s(g148
VCS
p5815
tp5816
I1
s(g3672
VVBZ
p5817
tp5818
I5
s(VCC
p5819
VABN
p5820
tp5821
I7
s(g5001
g5082
tp5822
I4
s(VNNS-TL
p5823
VNN$
p5824
tp5825
I3
s(VRBR
p5826
g109
tp5827
I7
s(VJJ
p5828
g268
tp5829
I3
s(g68
VVB
p5830
tp5831
I1
s(VCD-HL
p5832
V.-HL
p5833
tp5834
I2
s(g5784
g305
tp5835
I6
s(VNN-TL
p5836
g2764
tp5837
I1
s(VRB
p5838
VRP
p5839
tp5840
I1
s(g68
VNP
p5841
tp5842
I2
s(g7
VUH
p5843
tp5844
I1
s(g3485
VNN
p5845
tp5846
I84
s(VNP
p5847
g148
tp5848
I21
s(VWRB
p5849
g279
tp5850
I1
s(VVBZ
p5851
VDTS
p5852
tp5853
I2
s(VBE
p5854
VTO
p5855
tp5856
I3
s(V''
p5857
VNNS
p5858
tp5859
I5
s(VRB
p5860
VBEN
p5861
tp5862
I6
s(g148
g561
tp5863
I2
s(VAT
p5864
g68
tp5865
I3
s(VVB
p5866
VNP
p5867
tp5868
I37
s(VAP
p5869
g268
tp5870
I1
s(VVBZ
p5871
VJJ-TL
p5872
tp5873
I1
s(VDT
p5874
VAT
p5875
tp5876
I1
s(VWDT
p5877
g3145
tp5878
I12
s(VVBN
p5879
g2336
tp5880
I66
s(VNN-HL
p5881
g5227
tp5882
I3
s(g7
VNR
p5883
tp5884
I5
s(VBEN
p5885
g7
tp5886
I1
s(VHVZ
p5887
g7
tp5888
I2
s(g2295
VDTI
p5889
tp5890
I2
s(VWRB
p5891
VNN
p5892
tp5893
I3
s(VVBG
p5894
VNNS$
p5895
tp5896
I2
s(VIN-HL
p5897
V.-HL
p5898
tp5899
I2
s(g1288
g109
tp5900
I1
s(VPPS+HVZ
p5901
VBEN
p5902
tp5903
I1
s(VNNS-TL
p5904
VBEZ
p5905
tp5906
I1
s(VABN
p5907
VVBD
p5908
tp5909
I1
s(g955
VIN
p5910
tp5911
I213
s(g1804
g1130
tp5912
I2
s(VJJ-TL
p5913
VNNS-TL
p5914
tp5915
I36
s(VNP
p5916
VNP$
p5917
tp5918
I54
s(g3242
VVB
p5919
tp5920
I16
s(g2097
g4104
tp5921
I6
s(VVBN-HL
p5922
g666
tp5923
I1
s(VVB
p5924
VBE
p5925
tp5926
I1
s(VCC-TL
p5927
VNNS-TL
p5928
tp5929
I4
s(VBEDZ
p5930
VDT
p5931
tp5932
I1
s(VCC
p5933
VTO
p5934
tp5935
I7
s(g1885
VNN
p5936
tp5937
I5
s(g440
VNNS-HL
p5938
tp5939
I1
s(VNP
p5940
VNPS$
p5941
tp5942
I2
s(VNP
p5943
VNN$-TL
p5944
tp5945
I1
s(V``
p5946
VABN
p5947
tp5948
I6
s(g1022
VDT
p5949
tp5950
I5
s(g68
VNN-HL
p5951
tp5952
I1
s(VRB
p5953
VRB
p5954
tp5955
I26
s(g305
VVB
p5956
tp5957
I44
s(g2961
VCC
p5958
tp5959
I2
s(VAT-TL
p5960
VNN
p5961
tp5962
I1
s(VNN
p5963
g1136
tp5964
I150
s(VHVD
p5965
VDT
p5966
tp5967
I1
s(VAT
p5968
g1340
tp5969
I18
s(VNN-HL
p5970
g68
tp5971
I2
s(V''
p5972
VNP
p5973
tp5974
I1
s(g5375
g4514
tp5975
I5
s(VBEZ
p5976
VTO
p5977
tp5978
I11
s(g148
VJJ
p5979
tp5980
I2
s(VVBG
p5981
VVBD
p5982
tp5983
I7
s(VJJR
p5984
VNP
p5985
tp5986
I1
s(g5581
g316
tp5987
I3
s(VHV
p5988
VPP$
p5989
tp5990
I2
s(g655
VPPSS
p5991
tp5992
I1
s(g1580
VJJ
p5993
tp5994
I1
s(VNN
p5995
g3679
tp5996
I90
s(VWPS
p5997
VHVZ
p5998
tp5999
I20
s(VNNS
p6000
g2153
tp6001
I11
s(VBED
p6002
V``
p6003
tp6004
I3
s(g142
VVBN
p6005
tp6006
I1
s(VNNS
p6007
VJJ
p6008
tp6009
I24
s(VTO
p6010
VVBG
p6011
tp6012
I1
s(VVB
p6013
VRBR
p6014
tp6015
I3
s(VNNS
p6016
g4797
tp6017
I1
s(VRB
p6018
VNNS
p6019
tp6020
I17
s(VIN
p6021
g2278
tp6022
I35
s(V``
p6023
VVBG
p6024
tp6025
I10
s(g2228
g345
tp6026
I33
s(VNP-TL
p6027
VIN-TL
p6028
tp6029
I1
s(VIN
p6030
VJJT
p6031
tp6032
I1
s(g5019
VBE
p6033
tp6034
I1
s(g3488
VNP-TL
p6035
tp6036
I1
s(VIN
p6037
g1120
tp6038
I24
s(g2945
VIN
p6039
tp6040
I3
s(VDT
p6041
VNN$
p6042
tp6043
I4
s(g5404
VNN-TL
p6044
tp6045
I49
s(VVBG
p6046
VVB
p6047
tp6048
I1
s(VCC
p6049
g268
tp6050
I1
s(VIN
p6051
VNN$
p6052
tp6053
I2
s(VAP
p6054
VWRB
p6055
tp6056
I1
s(VNN
p6057
VVBG
p6058
tp6059
I86
s(V''
p6060
VPPS
p6061
tp6062
I3
s(g3394
VNNS
p6063
tp6064
I13
s(VNP
p6065
VOD
p6066
tp6067
I4
s(g884
VWPS
p6068
tp6069
I1
s(g68
g5661
tp6070
I2
s(VNN
p6071
g4040
tp6072
I75
s(VMD*
p6073
VVB
p6074
tp6075
I17
s(VAT
p6076
g421
tp6077
I4
s(VCD
p6078
VNP
p6079
tp6080
I29
s(VNNS-HL
p6081
V.-HL
p6082
tp6083
I2
s(VRB
p6084
VHV
p6085
tp6086
I9
s(VNPS$
p6087
VJJ
p6088
tp6089
I2
s(VAT
p6090
VQL
p6091
tp6092
I38
s(VMD*
p6093
g812
tp6094
I1
s(g1801
g2062
tp6095
I1
s(VVBN
p6096
VNP-TL
p6097
tp6098
I2
s(g4526
VNNS
p6099
tp6100
I14
s(g4307
VNNS-HL
p6101
tp6102
I6
s(VDT+BEZ
p6103
VPP$
p6104
tp6105
I1
s(VRB
p6106
VPPS+HVZ
p6107
tp6108
I1
s(g142
VVB
p6109
tp6110
I1
s(VNP
p6111
VBEDZ
p6112
tp6113
I67
s(VOD
p6114
VIN
p6115
tp6116
I18
s(g1902
g4375
tp6117
I5
s(VVBG-TL
p6118
g1834
tp6119
I1
s(VNP
p6120
VMD
p6121
tp6122
I65
s(VNN
p6123
VBED
p6124
tp6125
I14
s(g7
VPPS+BEZ
p6126
tp6127
I1
s(VRB
p6128
VWDT
p6129
tp6130
I2
s(VRP
p6131
VWRB
p6132
tp6133
I3
s(g3042
VVBN
p6134
tp6135
I3
s(g3143
VNR
p6136
tp6137
I51
s(g4898
g61
tp6138
I5
s(g3877
g1007
tp6139
I25
s(VNN$-TL
p6140
VNNS
p6141
tp6142
I3
s(VVBG
p6143
VPPSS
p6144
tp6145
I2
s(g5956
g7
tp6146
I34
s(VCS
p6147
VVB
p6148
tp6149
I1
s(V--
p6150
VNNS
p6151
tp6152
I4
s(VNPS
p6153
VHV
p6154
tp6155
I1
s(VRB
p6156
VBEDZ
p6157
tp6158
I16
s(VNN$
p6159
VAP
p6160
tp6161
I2
s(VMD
p6162
g265
tp6163
I38
s(VNN$
p6164
VIN
p6165
tp6166
I1
s(g841
VPPS
p6167
tp6168
I3
s(g5889
VIN
p6169
tp6170
I22
s(VNP-HL
p6171
VJJ-HL
p6172
tp6173
I1
s(g5674
VIN
p6174
tp6175
I13
s(g41
g5222
tp6176
I15
s(VVBD
p6177
g1281
tp6178
I53
s(g5645
V''
p6179
tp6180
I1
s(VNP$
p6181
VNNS-TL
p6182
tp6183
I2
s(VCD-HL
p6184
VIN-HL
p6185
tp6186
I2
s(g4596
VNN
p6187
tp6188
I1
s(VAT
p6189
g6087
tp6190
I12
s(VDTS
p6191
VNPS
p6192
tp6193
I1
s(VNP-TL
p6194
VNR
p6195
tp6196
I3
s(VCD
p6197
VCC
p6198
tp6199
I42
s(VVBN-TL
p6200
VVBG
p6201
tp6202
I1
s(VCS
p6203
VPPSS+BER
p6204
tp6205
I3
s(g5738
g1914
tp6206
I4
s(g4049
VBE
p6207
tp6208
I11
s(VMD
p6209
g161
tp6210
I7
s(g7
g1439
tp6211
I1
s(VNNS
p6212
g305
tp6213
I2
s(VDT
p6214
VCC
p6215
tp6216
I1
s(g2490
VCC
p6217
tp6218
I6
s(g305
VRB
p6219
tp6220
I13
s(VNN-TL
p6221
VBER
p6222
tp6223
I2
s(VFW-IN
p6224
g4730
tp6225
I1
s(VMD
p6226
VNNS
p6227
tp6228
I1
s(VJJ-TL
p6229
VVBD
p6230
tp6231
I3
s(VVBZ
p6232
VJJ
p6233
tp6234
I7
s(VPPL
p6235
VCS
p6236
tp6237
I2
s(V--
p6238
VPP$
p6239
tp6240
I4
s(VIN
p6241
VOD
p6242
tp6243
I13
s(g5303
VJJ
p6244
tp6245
I1
s(VHV
p6246
VABL
p6247
tp6248
I1
s(VWPO
p6249
VPPSS
p6250
tp6251
I1
s(g5323
VNN-TL
p6252
tp6253
I17
s(VPPS
p6254
g5737
tp6255
I55
s(VVBG
p6256
VDTI
p6257
tp6258
I2
s(VHVZ
p6259
VAT
p6260
tp6261
I12
s(g7
VJJS
p6262
tp6263
I2
s(VCD
p6264
V``
p6265
tp6266
I1
s(VCS
p6267
VPN
p6268
tp6269
I6
s(g142
VMD
p6270
tp6271
I1
s(VWRB
p6272
VAP
p6273
tp6274
I5
s(VDT
p6275
VNNS
p6276
tp6277
I3
s(g4315
g6021
tp6278
I153
s(VCC
p6279
g5037
tp6280
I2
s(VRP
p6281
VDTI
p6282
tp6283
I1
s(VCS
p6284
g305
tp6285
I3
s(V--
p6286
VBEDZ
p6287
tp6288
I1
s(VRP
p6289
V--
p6290
tp6291
I1
s(VNP
p6292
g4252
tp6293
I57
s(VHVG
p6294
VPP$
p6295
tp6296
I1
s(g7
VNPS
p6297
tp6298
I1
s(g7
VJJ-TL
p6299
tp6300
I18
s(VCD-HL
p6301
g1322
tp6302
I1
s(VPN
p6303
VVBZ
p6304
tp6305
I2
s(VBER
p6306
VDTS
p6307
tp6308
I1
s(VIN
p6309
g73
tp6310
I80
s(VCD
p6311
VNP-TL
p6312
tp6313
I3
s(g1428
VVBN
p6314
tp6315
I7
s(VRP
p6316
VTO
p6317
tp6318
I8
s(g1646
VNNS-TL
p6319
tp6320
I1
s(VRB
p6321
VWRB
p6322
tp6323
I6
s(VDO
p6324
VQL
p6325
tp6326
I2
s(VAT
p6327
VNP$
p6328
tp6329
I4
s(g142
g109
tp6330
I7
s(g1285
g3114
tp6331
I2
s(VBEDZ
p6332
VOD
p6333
tp6334
I2
s(VVBN
p6335
g336
tp6336
I4
s(VNN-TL
p6337
g6259
tp6338
I13
s(VNP
p6339
g70
tp6340
I3
s(VNNS
p6341
VCD
p6342
tp6343
I36
s(VAT
p6344
g3681
tp6345
I126
s(V--
p6346
VHVD
p6347
tp6348
I1
s(VPPS+BEZ
p6349
VAT
p6350
tp6351
I2
s(VCC
p6352
VPPSS
p6353
tp6354
I31
s(VCD-HL
p6355
VNP-HL
p6356
tp6357
I1
s(VIN
p6358
g542
tp6359
I12
s(VIN
p6360
VDTI
p6361
tp6362
I31
s(VPN
p6363
VDOD
p6364
tp6365
I1
s(VHV
p6366
VRB
p6367
tp6368
I9
s(VBEDZ
p6369
VIN
p6370
tp6371
I30
s(g2
VNN
p6372
tp6373
I3
s(VNNS-TL
p6374
VAT
p6375
tp6376
I3
s(VCD-TL
p6377
VNN-TL
p6378
tp6379
I13
s(VBER
p6380
VRBT
p6381
tp6382
I1
s(VNP
p6383
VWRB
p6384
tp6385
I3
s(VNN$
p6386
VJJT
p6387
tp6388
I6
s(VVBG
p6389
g3945
tp6390
I7
s(VVBG
p6391
VWPS+BEZ
p6392
tp6393
I1
s(VNNS-TL
p6394
VNP-TL
p6395
tp6396
I2
s(VNNS-TL
p6397
VIN
p6398
tp6399
I16
s(VHVD
p6400
VQL
p6401
tp6402
I1
s(VNNS
p6403
VHVD
p6404
tp6405
I10
s(VNNS-HL
p6406
VMD-HL
p6407
tp6408
I1
s(g3433
VQL
p6409
tp6410
I12
s(VNP-TL
p6411
g7
tp6412
I28
s(VNNS-TL
p6413
VVBD
p6414
tp6415
I19
s(VWPS
p6416
V``
p6417
tp6418
I1
s(VVBD
p6419
VABL
p6420
tp6421
I1
s(VRP
p6422
VCD
p6423
tp6424
I12
s(VAT
p6425
g1216
tp6426
I39
s(g2950
VDT
p6427
tp6428
I1
s(VNP-TL
p6429
VNP
p6430
tp6431
I2
s(VBEZ
p6432
VNN-TL
p6433
tp6434
I1
s(VWPS
p6435
VVBZ
p6436
tp6437
I27
s(V``
p6438
VAT
p6439
tp6440
I29
s(VNN-HL
p6441
VNN-HL
p6442
tp6443
I9
s(VNN-TL
p6444
VAP
p6445
tp6446
I4
s(g2958
VVBN
p6447
tp6448
I19
s(g5605
VNN-TL
p6449
tp6450
I1
s(VWPS
p6451
VBED
p6452
tp6453
I5
s(VDO
p6454
g305
tp6455
I5
s(g2715
g570
tp6456
I295
s(V``
p6457
g5717
tp6458
I6
s(VNP$
p6459
VNN-TL
p6460
tp6461
I9
s(VVBZ
p6462
g6432
tp6463
I1
s(VHVZ
p6464
VTO
p6465
tp6466
I2
s(VJJ
p6467
g1906
tp6468
I1
s(VIN
p6469
VBED
p6470
tp6471
I1
s(VDTS
p6472
g1681
tp6473
I1
s(VVB
p6474
VBEDZ
p6475
tp6476
I1
s(VPPSS+MD
p6477
VHV
p6478
tp6479
I2
s(V``
p6480
VPPSS
p6481
tp6482
I61
s(g268
VRB
p6483
tp6484
I1
s(g5326
VAT
p6485
tp6486
I2
s(g6136
g3792
tp6487
I8
s(g272
VBEDZ
p6488
tp6489
I8
s(g7
VBEG
p6490
tp6491
I2
s(VNN
p6492
VNN$
p6493
tp6494
I4
s(VVBZ
p6495
VCS
p6496
tp6497
I14
s(VCD-TL
p6498
VIN
p6499
tp6500
I1
s(VNN$-HL
p6501
VNN-HL
p6502
tp6503
I1
s(g452
g4912
tp6504
I2
s(g719
VAT
p6505
tp6506
I6
s(VNN-TL
p6507
VQL
p6508
tp6509
I1
s(g2253
g1325
tp6510
I14
s(VNN-HL
p6511
g1999
tp6512
I2
s(VNNS-TL
p6513
VCC
p6514
tp6515
I5
s(g819
VDTS
p6516
tp6517
I2
s(VNPS-TL
p6518
VCC
p6519
tp6520
I1
s(VHVZ
p6521
VPP$
p6522
tp6523
I1
s(g305
VJJ
p6524
tp6525
I11
s(VNNS
p6526
VAT
p6527
tp6528
I39
s(VJJS
p6529
VVBG
p6530
tp6531
I2
s(g4562
VNNS-HL
p6532
tp6533
I2
s(VRP
p6534
VAT
p6535
tp6536
I38
s(VCS
p6537
VJJ
p6538
tp6539
I34
s(g3852
VVB-HL
p6540
tp6541
I6
s(VJJ
p6542
VJJR
p6543
tp6544
I3
s(g268
VAT
p6545
tp6546
I2
s(VAP
p6547
VAT
p6548
tp6549
I7
s(VCC
p6550
g6477
tp6551
I3
s(VTO
p6552
VBE
p6553
tp6554
I63
s(VNNS
p6555
g268
tp6556
I13
s(g7
VNNS$
p6557
tp6558
I2
s(VBEN
p6559
g5639
tp6560
I2
s(VHVZ
p6561
VAP
p6562
tp6563
I1
s(VJJ
p6564
VAP
p6565
tp6566
I2
s(VNN
p6567
g3835
tp6568
I1
s(VNPS-TL
p6569
VNN-TL
p6570
tp6571
I1
s(V''
p6572
VBEDZ
p6573
tp6574
I1
s(VVBZ
p6575
VPP$
p6576
tp6577
I14
s(VBED
p6578
VNNS
p6579
tp6580
I5
s(g7
g5242
tp6581
I68
s(VVB-HL
p6582
VIN-HL
p6583
tp6584
I2
s(g2192
g1661
tp6585
I31
s(VNP-TL
p6586
VIN
p6587
tp6588
I12
s(g5843
V--
p6589
tp6590
I1
s(VNP
p6591
V``
p6592
tp6593
I4
s(g5144
g7
tp6594
I26
s(g3661
VVBG
p6595
tp6596
I2
s(VEX
p6597
VHVD
p6598
tp6599
I1
s(VWDT
p6600
VVBN
p6601
tp6602
I1
s(V--
p6603
VVBZ
p6604
tp6605
I1
s(VNP
p6606
VHVZ
p6607
tp6608
I39
s(VNNS-HL
p6609
g68
tp6610
I1
s(VCS
p6611
g268
tp6612
I1
s(g4840
VNNS
p6613
tp6614
I8
s(g1868
VTO-HL
p6615
tp6616
I1
s(g1866
VHVD
p6617
tp6618
I1
s(VVBZ
p6619
g7
tp6620
I8
s(VCD
p6621
V--
p6622
tp6623
I2
s(VBEZ-HL
p6624
VVBN-HL
p6625
tp6626
I1
s(g4723
VVBG
p6627
tp6628
I1
s(VDT
p6629
VVB
p6630
tp6631
I1
s(V``
p6632
VPPS
p6633
tp6634
I17
s(VCD
p6635
VRB
p6636
tp6637
I41
s(g305
VTO
p6638
tp6639
I2
s(VVBZ
p6640
VVBG
p6641
tp6642
I2
s(VNP
p6643
g268
tp6644
I2
s(VNR
p6645
VNN$
p6646
tp6647
I1
s(g7
VQL
p6648
tp6649
I11
s(VAT
p6650
g2213
tp6651
I36
s(g2608
VOD
p6652
tp6653
I29
s(VVBD
p6654
VNN-TL
p6655
tp6656
I7
s(g1772
VTO
p6657
tp6658
I1
s(VDT
p6659
VJJ-TL
p6660
tp6661
I1
s(VRP
p6662
VDT
p6663
tp6664
I2
s(VMD
p6665
g4667
tp6666
I2
s(g3924
VRP-HL
p6667
tp6668
I1
s(VVB
p6669
g6306
tp6670
I1
s(V``
p6671
g4744
tp6672
I1
s(VNN
p6673
g5127
tp6674
I1
s(VCS
p6675
g675
tp6676
I2
s(g2596
g2411
tp6677
I12
s(g206
g2501
tp6678
I4
s(VCS
p6679
VTO
p6680
tp6681
I1
s(VNN-TL
p6682
g5677
tp6683
I1
s(g2985
VVB
p6684
tp6685
I4
s(VCD-TL
p6686
g1514
tp6687
I1
s(VABX
p6688
VHV
p6689
tp6690
I1
s(VJJ-TL
p6691
g7
tp6692
I7
s(VNNS
p6693
VHV
p6694
tp6695
I21
s(VAP
p6696
g3799
tp6697
I1
s(VCC
p6698
VCD-TL
p6699
tp6700
I1
s(VCC
p6701
VMD
p6702
tp6703
I18
s(g5561
VRB
p6704
tp6705
I2
s(g3818
VNR
p6706
tp6707
I2
s(VNN
p6708
g3266
tp6709
I65
s(VCD
p6710
VHVD
p6711
tp6712
I3
s(VCS
p6713
VBEG
p6714
tp6715
I5
s(VVBZ
p6716
VNN-TL
p6717
tp6718
I1
s(VJJ
p6719
g6224
tp6720
I1
s(VJJT
p6721
VNP
p6722
tp6723
I1
s(VJJ-TL
p6724
VTO
p6725
tp6726
I1
s(VRB
p6727
g2210
tp6728
I8
s(VNN
p6729
g1287
tp6730
I1
s(g4579
g4279
tp6731
I10
s(VVBZ
p6732
g966
tp6733
I1
s(V--
p6734
VNP-TL
p6735
tp6736
I2
s(VJJ-TL
p6737
g109
tp6738
I2
s(VNN
p6739
g3363
tp6740
I18
s(VNNS
p6741
VPPSS
p6742
tp6743
I5
s(VNP
p6744
g1620
tp6745
I10
s(VPPSS+HV
p6746
VVBN
p6747
tp6748
I5
s(g142
VCS
p6749
tp6750
I1
s(VNR
p6751
VNP
p6752
tp6753
I2
s(VVBZ-HL
p6754
g2771
tp6755
I1
s(g5370
VNNS
p6756
tp6757
I22
s(VRP
p6758
VJJS
p6759
tp6760
I1
s(g4745
VNN-HL
p6761
tp6762
I1
s(VVBD
p6763
g5428
tp6764
I74
s(g5243
VAT
p6765
tp6766
I53
s(VAP
p6767
VVBG
p6768
tp6769
I3
s(VNN$-TL
p6770
VVBG
p6771
tp6772
I1
s(VVBD
p6773
g268
tp6774
I9
s(VRB
p6775
VPPS
p6776
tp6777
I12
s(VJJR
p6778
VCC
p6779
tp6780
I1
s(VCS
p6781
VNN-TL
p6782
tp6783
I15
s(VJJ-TL
p6784
g3948
tp6785
I1
s(VDT
p6786
g268
tp6787
I1
s(g467
VAT
p6788
tp6789
I162
s(g1727
VCD
p6790
tp6791
I1
s(VPPSS
p6792
VBER
p6793
tp6794
I18
s(VCC
p6795
VNP$
p6796
tp6797
I3
s(VAP
p6798
V''
p6799
tp6800
I3
s(g5157
g6438
tp6801
I11
s(g142
VWRB
p6802
tp6803
I1
s(VVBZ
p6804
VOD
p6805
tp6806
I1
s(g305
VVBG
p6807
tp6808
I7
s(VBEM
p6809
VVBN
p6810
tp6811
I1
s(V``
p6812
VMD
p6813
tp6814
I4
s(VIN
p6815
g496
tp6816
I4
s(g142
VVBD
p6817
tp6818
I4
s(g1710
VCS
p6819
tp6820
I24
s(VJJT
p6821
g7
tp6822
I1
s.